
/cygdrive/E/AmebaD/sdk/svn_new/project/realtek_amebaD_cm0_gcc_verification/asdk/image/target_rom.axf:     file format elf32-littlearm


Disassembly of section .rom.text:

00000000 <__vectors_table>:
       0:	0008fffc 	.word	0x0008fffc
       4:	00000101 	.word	0x00000101
       8:	00000105 	.word	0x00000105
       c:	00000109 	.word	0x00000109
      10:	0000010d 	.word	0x0000010d
      14:	00000111 	.word	0x00000111
	...

00000100 <Reset_Handler>:
     100:	f004 ba00 	b.w	4504 <BOOT_ROM_ResetVsr>

00000104 <NMI_Handler>:
     104:	f005 b932 	b.w	536c <INT_NMI>

00000108 <HardFault_Handler>:
     108:	f005 b93e 	b.w	5388 <INT_HardFault>

0000010c <MemManage_Handler>:
     10c:	f005 b948 	b.w	53a0 <INT_MemManage>

00000110 <BusFault_Handler>:
     110:	f005 b954 	b.w	53bc <INT_BusFault>

00000114 <DiagVSprintf>:
     114:	b5f0      	push	{r4, r5, r6, r7, lr}
     116:	4657      	mov	r7, sl
     118:	464e      	mov	r6, r9
     11a:	46de      	mov	lr, fp
     11c:	4645      	mov	r5, r8
     11e:	b5e0      	push	{r5, r6, r7, lr}
     120:	0006      	movs	r6, r0
     122:	7808      	ldrb	r0, [r1, #0]
     124:	b08b      	sub	sp, #44	; 0x2c
     126:	000f      	movs	r7, r1
     128:	9202      	str	r2, [sp, #8]
     12a:	0034      	movs	r4, r6
     12c:	2800      	cmp	r0, #0
     12e:	d100      	bne.n	132 <DiagVSprintf+0x1e>
     130:	e183      	b.n	43a <DiagVSprintf+0x326>
     132:	4bc8      	ldr	r3, [pc, #800]	; (454 <DiagVSprintf+0x340>)
     134:	469b      	mov	fp, r3
     136:	e00a      	b.n	14e <DiagVSprintf+0x3a>
     138:	2e00      	cmp	r6, #0
     13a:	d100      	bne.n	13e <DiagVSprintf+0x2a>
     13c:	e0fd      	b.n	33a <DiagVSprintf+0x226>
     13e:	003d      	movs	r5, r7
     140:	7020      	strb	r0, [r4, #0]
     142:	3401      	adds	r4, #1
     144:	7868      	ldrb	r0, [r5, #1]
     146:	1c6f      	adds	r7, r5, #1
     148:	2800      	cmp	r0, #0
     14a:	d100      	bne.n	14e <DiagVSprintf+0x3a>
     14c:	e0ad      	b.n	2aa <DiagVSprintf+0x196>
     14e:	2825      	cmp	r0, #37	; 0x25
     150:	d1f2      	bne.n	138 <DiagVSprintf+0x24>
     152:	7879      	ldrb	r1, [r7, #1]
     154:	1c7d      	adds	r5, r7, #1
     156:	9b02      	ldr	r3, [sp, #8]
     158:	2973      	cmp	r1, #115	; 0x73
     15a:	d100      	bne.n	15e <DiagVSprintf+0x4a>
     15c:	e0b7      	b.n	2ce <DiagVSprintf+0x1ba>
     15e:	681b      	ldr	r3, [r3, #0]
     160:	469c      	mov	ip, r3
     162:	2b0f      	cmp	r3, #15
     164:	dc00      	bgt.n	168 <DiagVSprintf+0x54>
     166:	e0ab      	b.n	2c0 <DiagVSprintf+0x1ac>
     168:	4662      	mov	r2, ip
     16a:	3a10      	subs	r2, #16
     16c:	2304      	movs	r3, #4
     16e:	2aef      	cmp	r2, #239	; 0xef
     170:	d908      	bls.n	184 <DiagVSprintf+0x70>
     172:	4663      	mov	r3, ip
     174:	f640 60ff 	movw	r0, #3839	; 0xeff
     178:	1e5a      	subs	r2, r3, #1
     17a:	3aff      	subs	r2, #255	; 0xff
     17c:	2308      	movs	r3, #8
     17e:	4282      	cmp	r2, r0
     180:	d900      	bls.n	184 <DiagVSprintf+0x70>
     182:	e0ba      	b.n	2fa <DiagVSprintf+0x1e6>
     184:	000a      	movs	r2, r1
     186:	3a30      	subs	r2, #48	; 0x30
     188:	2a09      	cmp	r2, #9
     18a:	d919      	bls.n	1c0 <DiagVSprintf+0xac>
     18c:	2978      	cmp	r1, #120	; 0x78
     18e:	d028      	beq.n	1e2 <DiagVSprintf+0xce>
     190:	2958      	cmp	r1, #88	; 0x58
     192:	d100      	bne.n	196 <DiagVSprintf+0x82>
     194:	e0d5      	b.n	342 <DiagVSprintf+0x22e>
     196:	2970      	cmp	r1, #112	; 0x70
     198:	d100      	bne.n	19c <DiagVSprintf+0x88>
     19a:	e0e0      	b.n	35e <DiagVSprintf+0x24a>
     19c:	2950      	cmp	r1, #80	; 0x50
     19e:	d100      	bne.n	1a2 <DiagVSprintf+0x8e>
     1a0:	e0ef      	b.n	382 <DiagVSprintf+0x26e>
     1a2:	2964      	cmp	r1, #100	; 0x64
     1a4:	d100      	bne.n	1a8 <DiagVSprintf+0x94>
     1a6:	e0f2      	b.n	38e <DiagVSprintf+0x27a>
     1a8:	2963      	cmp	r1, #99	; 0x63
     1aa:	d100      	bne.n	1ae <DiagVSprintf+0x9a>
     1ac:	e13a      	b.n	424 <DiagVSprintf+0x310>
     1ae:	4688      	mov	r8, r1
     1b0:	aa05      	add	r2, sp, #20
     1b2:	7011      	strb	r1, [r2, #0]
     1b4:	a904      	add	r1, sp, #16
     1b6:	2305      	movs	r3, #5
     1b8:	468c      	mov	ip, r1
     1ba:	4463      	add	r3, ip
     1bc:	9301      	str	r3, [sp, #4]
     1be:	e054      	b.n	26a <DiagVSprintf+0x156>
     1c0:	2200      	movs	r2, #0
     1c2:	0093      	lsls	r3, r2, #2
     1c4:	189a      	adds	r2, r3, r2
     1c6:	0052      	lsls	r2, r2, #1
     1c8:	3501      	adds	r5, #1
     1ca:	1853      	adds	r3, r2, r1
     1cc:	7829      	ldrb	r1, [r5, #0]
     1ce:	0008      	movs	r0, r1
     1d0:	001a      	movs	r2, r3
     1d2:	3830      	subs	r0, #48	; 0x30
     1d4:	3a30      	subs	r2, #48	; 0x30
     1d6:	2809      	cmp	r0, #9
     1d8:	d9f3      	bls.n	1c2 <DiagVSprintf+0xae>
     1da:	3b31      	subs	r3, #49	; 0x31
     1dc:	009b      	lsls	r3, r3, #2
     1de:	2978      	cmp	r1, #120	; 0x78
     1e0:	d1d6      	bne.n	190 <DiagVSprintf+0x7c>
     1e2:	f240 0920 	movw	r9, #32
     1e6:	9a02      	ldr	r2, [sp, #8]
     1e8:	3204      	adds	r2, #4
     1ea:	9202      	str	r2, [sp, #8]
     1ec:	aa05      	add	r2, sp, #20
     1ee:	9201      	str	r2, [sp, #4]
     1f0:	4661      	mov	r1, ip
     1f2:	2900      	cmp	r1, #0
     1f4:	d100      	bne.n	1f8 <DiagVSprintf+0xe4>
     1f6:	e0af      	b.n	358 <DiagVSprintf+0x244>
     1f8:	2000      	movs	r0, #0
     1fa:	e000      	b.n	1fe <DiagVSprintf+0xea>
     1fc:	0038      	movs	r0, r7
     1fe:	0909      	lsrs	r1, r1, #4
     200:	1c47      	adds	r7, r0, #1
     202:	2900      	cmp	r1, #0
     204:	d1fa      	bne.n	1fc <DiagVSprintf+0xe8>
     206:	0080      	lsls	r0, r0, #2
     208:	4698      	mov	r8, r3
     20a:	4283      	cmp	r3, r0
     20c:	da00      	bge.n	210 <DiagVSprintf+0xfc>
     20e:	4680      	mov	r8, r0
     210:	4643      	mov	r3, r8
     212:	2b00      	cmp	r3, #0
     214:	db23      	blt.n	25e <DiagVSprintf+0x14a>
     216:	464b      	mov	r3, r9
     218:	4669      	mov	r1, sp
     21a:	730b      	strb	r3, [r1, #12]
     21c:	7b0b      	ldrb	r3, [r1, #12]
     21e:	b25b      	sxtb	r3, r3
     220:	4699      	mov	r9, r3
     222:	0010      	movs	r0, r2
     224:	4641      	mov	r1, r8
     226:	4662      	mov	r2, ip
     228:	270f      	movs	r7, #15
     22a:	46a4      	mov	ip, r4
     22c:	46aa      	mov	sl, r5
     22e:	464c      	mov	r4, r9
     230:	4681      	mov	r9, r0
     232:	9b01      	ldr	r3, [sp, #4]
     234:	0010      	movs	r0, r2
     236:	40c8      	lsrs	r0, r1
     238:	465d      	mov	r5, fp
     23a:	4038      	ands	r0, r7
     23c:	5c28      	ldrb	r0, [r5, r0]
     23e:	4320      	orrs	r0, r4
     240:	7018      	strb	r0, [r3, #0]
     242:	3301      	adds	r3, #1
     244:	3904      	subs	r1, #4
     246:	d5f5      	bpl.n	234 <DiagVSprintf+0x120>
     248:	9901      	ldr	r1, [sp, #4]
     24a:	4643      	mov	r3, r8
     24c:	4664      	mov	r4, ip
     24e:	468c      	mov	ip, r1
     250:	089b      	lsrs	r3, r3, #2
     252:	3301      	adds	r3, #1
     254:	449c      	add	ip, r3
     256:	4663      	mov	r3, ip
     258:	4655      	mov	r5, sl
     25a:	464a      	mov	r2, r9
     25c:	9301      	str	r3, [sp, #4]
     25e:	9b01      	ldr	r3, [sp, #4]
     260:	4293      	cmp	r3, r2
     262:	d800      	bhi.n	266 <DiagVSprintf+0x152>
     264:	e76e      	b.n	144 <DiagVSprintf+0x30>
     266:	7813      	ldrb	r3, [r2, #0]
     268:	4698      	mov	r8, r3
     26a:	46a9      	mov	r9, r5
     26c:	0017      	movs	r7, r2
     26e:	0025      	movs	r5, r4
     270:	4644      	mov	r4, r8
     272:	46b0      	mov	r8, r6
     274:	9e01      	ldr	r6, [sp, #4]
     276:	e003      	b.n	280 <DiagVSprintf+0x16c>
     278:	3701      	adds	r7, #1
     27a:	42b7      	cmp	r7, r6
     27c:	d20d      	bcs.n	29a <DiagVSprintf+0x186>
     27e:	783c      	ldrb	r4, [r7, #0]
     280:	4643      	mov	r3, r8
     282:	2b00      	cmp	r3, #0
     284:	d032      	beq.n	2ec <DiagVSprintf+0x1d8>
     286:	702c      	strb	r4, [r5, #0]
     288:	3501      	adds	r5, #1
     28a:	2c0a      	cmp	r4, #10
     28c:	d1f4      	bne.n	278 <DiagVSprintf+0x164>
     28e:	200d      	movs	r0, #13
     290:	4b71      	ldr	r3, [pc, #452]	; (458 <DiagVSprintf+0x344>)
     292:	3701      	adds	r7, #1
     294:	4798      	blx	r3
     296:	42b7      	cmp	r7, r6
     298:	d3f1      	bcc.n	27e <DiagVSprintf+0x16a>
     29a:	002c      	movs	r4, r5
     29c:	464d      	mov	r5, r9
     29e:	7868      	ldrb	r0, [r5, #1]
     2a0:	4646      	mov	r6, r8
     2a2:	1c6f      	adds	r7, r5, #1
     2a4:	2800      	cmp	r0, #0
     2a6:	d000      	beq.n	2aa <DiagVSprintf+0x196>
     2a8:	e751      	b.n	14e <DiagVSprintf+0x3a>
     2aa:	1ba0      	subs	r0, r4, r6
     2ac:	b10e      	cbz	r6, 2b2 <DiagVSprintf+0x19e>
     2ae:	2300      	movs	r3, #0
     2b0:	7023      	strb	r3, [r4, #0]
     2b2:	b00b      	add	sp, #44	; 0x2c
     2b4:	bc3c      	pop	{r2, r3, r4, r5}
     2b6:	4690      	mov	r8, r2
     2b8:	4699      	mov	r9, r3
     2ba:	46a2      	mov	sl, r4
     2bc:	46ab      	mov	fp, r5
     2be:	bdf0      	pop	{r4, r5, r6, r7, pc}
     2c0:	000b      	movs	r3, r1
     2c2:	3b30      	subs	r3, #48	; 0x30
     2c4:	2b09      	cmp	r3, #9
     2c6:	d800      	bhi.n	2ca <DiagVSprintf+0x1b6>
     2c8:	e77a      	b.n	1c0 <DiagVSprintf+0xac>
     2ca:	2300      	movs	r3, #0
     2cc:	e75e      	b.n	18c <DiagVSprintf+0x78>
     2ce:	681f      	ldr	r7, [r3, #0]
     2d0:	7838      	ldrb	r0, [r7, #0]
     2d2:	1d1a      	adds	r2, r3, #4
     2d4:	4690      	mov	r8, r2
     2d6:	b130      	cbz	r0, 2e6 <DiagVSprintf+0x1d2>
     2d8:	b166      	cbz	r6, 2f4 <DiagVSprintf+0x1e0>
     2da:	7020      	strb	r0, [r4, #0]
     2dc:	3401      	adds	r4, #1
     2de:	3701      	adds	r7, #1
     2e0:	7838      	ldrb	r0, [r7, #0]
     2e2:	2800      	cmp	r0, #0
     2e4:	d1f8      	bne.n	2d8 <DiagVSprintf+0x1c4>
     2e6:	4643      	mov	r3, r8
     2e8:	9302      	str	r3, [sp, #8]
     2ea:	e72b      	b.n	144 <DiagVSprintf+0x30>
     2ec:	0020      	movs	r0, r4
     2ee:	4b5a      	ldr	r3, [pc, #360]	; (458 <DiagVSprintf+0x344>)
     2f0:	4798      	blx	r3
     2f2:	e7ca      	b.n	28a <DiagVSprintf+0x176>
     2f4:	4b58      	ldr	r3, [pc, #352]	; (458 <DiagVSprintf+0x344>)
     2f6:	4798      	blx	r3
     2f8:	e7f1      	b.n	2de <DiagVSprintf+0x1ca>
     2fa:	f64e 70ff 	movw	r0, #61439	; 0xefff
     2fe:	4a57      	ldr	r2, [pc, #348]	; (45c <DiagVSprintf+0x348>)
     300:	4462      	add	r2, ip
     302:	3304      	adds	r3, #4
     304:	4282      	cmp	r2, r0
     306:	d800      	bhi.n	30a <DiagVSprintf+0x1f6>
     308:	e73c      	b.n	184 <DiagVSprintf+0x70>
     30a:	4a55      	ldr	r2, [pc, #340]	; (460 <DiagVSprintf+0x34c>)
     30c:	4855      	ldr	r0, [pc, #340]	; (464 <DiagVSprintf+0x350>)
     30e:	4462      	add	r2, ip
     310:	3304      	adds	r3, #4
     312:	4282      	cmp	r2, r0
     314:	d800      	bhi.n	318 <DiagVSprintf+0x204>
     316:	e735      	b.n	184 <DiagVSprintf+0x70>
     318:	4a53      	ldr	r2, [pc, #332]	; (468 <DiagVSprintf+0x354>)
     31a:	4854      	ldr	r0, [pc, #336]	; (46c <DiagVSprintf+0x358>)
     31c:	4462      	add	r2, ip
     31e:	3304      	adds	r3, #4
     320:	4282      	cmp	r2, r0
     322:	d800      	bhi.n	326 <DiagVSprintf+0x212>
     324:	e72e      	b.n	184 <DiagVSprintf+0x70>
     326:	22ff      	movs	r2, #255	; 0xff
     328:	4851      	ldr	r0, [pc, #324]	; (470 <DiagVSprintf+0x35c>)
     32a:	0612      	lsls	r2, r2, #24
     32c:	4462      	add	r2, ip
     32e:	3308      	adds	r3, #8
     330:	4282      	cmp	r2, r0
     332:	d900      	bls.n	336 <DiagVSprintf+0x222>
     334:	e726      	b.n	184 <DiagVSprintf+0x70>
     336:	3b04      	subs	r3, #4
     338:	e724      	b.n	184 <DiagVSprintf+0x70>
     33a:	4b47      	ldr	r3, [pc, #284]	; (458 <DiagVSprintf+0x344>)
     33c:	4798      	blx	r3
     33e:	003d      	movs	r5, r7
     340:	e700      	b.n	144 <DiagVSprintf+0x30>
     342:	4661      	mov	r1, ip
     344:	9a02      	ldr	r2, [sp, #8]
     346:	3204      	adds	r2, #4
     348:	9202      	str	r2, [sp, #8]
     34a:	aa05      	add	r2, sp, #20
     34c:	f240 0900 	movw	r9, #0
     350:	9201      	str	r2, [sp, #4]
     352:	2900      	cmp	r1, #0
     354:	d000      	beq.n	358 <DiagVSprintf+0x244>
     356:	e74f      	b.n	1f8 <DiagVSprintf+0xe4>
     358:	2004      	movs	r0, #4
     35a:	4240      	negs	r0, r0
     35c:	e754      	b.n	208 <DiagVSprintf+0xf4>
     35e:	f240 0920 	movw	r9, #32
     362:	9a02      	ldr	r2, [sp, #8]
     364:	3204      	adds	r2, #4
     366:	9202      	str	r2, [sp, #8]
     368:	2130      	movs	r1, #48	; 0x30
     36a:	aa05      	add	r2, sp, #20
     36c:	4648      	mov	r0, r9
     36e:	7011      	strb	r1, [r2, #0]
     370:	2158      	movs	r1, #88	; 0x58
     372:	4301      	orrs	r1, r0
     374:	a804      	add	r0, sp, #16
     376:	7051      	strb	r1, [r2, #1]
     378:	4680      	mov	r8, r0
     37a:	2106      	movs	r1, #6
     37c:	4441      	add	r1, r8
     37e:	9101      	str	r1, [sp, #4]
     380:	e736      	b.n	1f0 <DiagVSprintf+0xdc>
     382:	9a02      	ldr	r2, [sp, #8]
     384:	3204      	adds	r2, #4
     386:	9202      	str	r2, [sp, #8]
     388:	f240 0900 	movw	r9, #0
     38c:	e7ec      	b.n	368 <DiagVSprintf+0x254>
     38e:	9a02      	ldr	r2, [sp, #8]
     390:	3204      	adds	r2, #4
     392:	9202      	str	r2, [sp, #8]
     394:	4662      	mov	r2, ip
     396:	2a00      	cmp	r2, #0
     398:	db51      	blt.n	43e <DiagVSprintf+0x32a>
     39a:	aa05      	add	r2, sp, #20
     39c:	2000      	movs	r0, #0
     39e:	0017      	movs	r7, r2
     3a0:	1a39      	subs	r1, r7, r0
     3a2:	9503      	str	r5, [sp, #12]
     3a4:	4691      	mov	r9, r2
     3a6:	4665      	mov	r5, ip
     3a8:	f240 0a0a 	movw	sl, #10
     3ac:	46a4      	mov	ip, r4
     3ae:	4698      	mov	r8, r3
     3b0:	000c      	movs	r4, r1
     3b2:	003a      	movs	r2, r7
     3b4:	9701      	str	r7, [sp, #4]
     3b6:	fb95 f3fa 	sdiv	r3, r5, sl
     3ba:	0099      	lsls	r1, r3, #2
     3bc:	18c9      	adds	r1, r1, r3
     3be:	0049      	lsls	r1, r1, #1
     3c0:	1a69      	subs	r1, r5, r1
     3c2:	3130      	adds	r1, #48	; 0x30
     3c4:	5421      	strb	r1, [r4, r0]
     3c6:	3201      	adds	r2, #1
     3c8:	001d      	movs	r5, r3
     3ca:	3001      	adds	r0, #1
     3cc:	2b00      	cmp	r3, #0
     3ce:	d1f2      	bne.n	3b6 <DiagVSprintf+0x2a2>
     3d0:	4643      	mov	r3, r8
     3d2:	4692      	mov	sl, r2
     3d4:	9201      	str	r2, [sp, #4]
     3d6:	9d03      	ldr	r5, [sp, #12]
     3d8:	4664      	mov	r4, ip
     3da:	464a      	mov	r2, r9
     3dc:	2b00      	cmp	r3, #0
     3de:	db12      	blt.n	406 <DiagVSprintf+0x2f2>
     3e0:	089b      	lsrs	r3, r3, #2
     3e2:	43db      	mvns	r3, r3
     3e4:	2130      	movs	r1, #48	; 0x30
     3e6:	181b      	adds	r3, r3, r0
     3e8:	46cc      	mov	ip, r9
     3ea:	4652      	mov	r2, sl
     3ec:	e002      	b.n	3f4 <DiagVSprintf+0x2e0>
     3ee:	3801      	subs	r0, #1
     3f0:	4283      	cmp	r3, r0
     3f2:	d006      	beq.n	402 <DiagVSprintf+0x2ee>
     3f4:	2800      	cmp	r0, #0
     3f6:	dcfa      	bgt.n	3ee <DiagVSprintf+0x2da>
     3f8:	3801      	subs	r0, #1
     3fa:	7011      	strb	r1, [r2, #0]
     3fc:	3201      	adds	r2, #1
     3fe:	4283      	cmp	r3, r0
     400:	d1f8      	bne.n	3f4 <DiagVSprintf+0x2e0>
     402:	9201      	str	r2, [sp, #4]
     404:	4662      	mov	r2, ip
     406:	9b01      	ldr	r3, [sp, #4]
     408:	3b01      	subs	r3, #1
     40a:	429f      	cmp	r7, r3
     40c:	d300      	bcc.n	410 <DiagVSprintf+0x2fc>
     40e:	e726      	b.n	25e <DiagVSprintf+0x14a>
     410:	7839      	ldrb	r1, [r7, #0]
     412:	7818      	ldrb	r0, [r3, #0]
     414:	3701      	adds	r7, #1
     416:	7019      	strb	r1, [r3, #0]
     418:	1e79      	subs	r1, r7, #1
     41a:	3b01      	subs	r3, #1
     41c:	7008      	strb	r0, [r1, #0]
     41e:	42bb      	cmp	r3, r7
     420:	d8f6      	bhi.n	410 <DiagVSprintf+0x2fc>
     422:	e71c      	b.n	25e <DiagVSprintf+0x14a>
     424:	9b02      	ldr	r3, [sp, #8]
     426:	3304      	adds	r3, #4
     428:	466a      	mov	r2, sp
     42a:	9302      	str	r3, [sp, #8]
     42c:	4663      	mov	r3, ip
     42e:	7113      	strb	r3, [r2, #4]
     430:	7913      	ldrb	r3, [r2, #4]
     432:	aa05      	add	r2, sp, #20
     434:	4698      	mov	r8, r3
     436:	7013      	strb	r3, [r2, #0]
     438:	e6bc      	b.n	1b4 <DiagVSprintf+0xa0>
     43a:	2000      	movs	r0, #0
     43c:	e736      	b.n	2ac <DiagVSprintf+0x198>
     43e:	3937      	subs	r1, #55	; 0x37
     440:	aa05      	add	r2, sp, #20
     442:	7011      	strb	r1, [r2, #0]
     444:	4661      	mov	r1, ip
     446:	4249      	negs	r1, r1
     448:	468c      	mov	ip, r1
     44a:	a904      	add	r1, sp, #16
     44c:	2001      	movs	r0, #1
     44e:	1d4f      	adds	r7, r1, #5
     450:	e7a6      	b.n	3a0 <DiagVSprintf+0x28c>
     452:	bf00      	nop
     454:	000205b8 	.word	0x000205b8
     458:	000031f1 	.word	0x000031f1
     45c:	fffff000 	.word	0xfffff000
     460:	ffff0000 	.word	0xffff0000
     464:	000effff 	.word	0x000effff
     468:	fff00000 	.word	0xfff00000
     46c:	00efffff 	.word	0x00efffff
     470:	0effffff 	.word	0x0effffff

00000474 <DiagPrintf>:
     474:	b40f      	push	{r0, r1, r2, r3}
     476:	4b0f      	ldr	r3, [pc, #60]	; (4b4 <DiagPrintf+0x40>)
     478:	681a      	ldr	r2, [r3, #0]
     47a:	b510      	push	{r4, lr}
     47c:	2a01      	cmp	r2, #1
     47e:	d017      	beq.n	4b0 <DiagPrintf+0x3c>
     480:	685a      	ldr	r2, [r3, #4]
     482:	2a01      	cmp	r2, #1
     484:	d008      	beq.n	498 <DiagPrintf+0x24>
     486:	aa03      	add	r2, sp, #12
     488:	9902      	ldr	r1, [sp, #8]
     48a:	2000      	movs	r0, #0
     48c:	f7ff fe42 	bl	114 <DiagVSprintf>
     490:	bc10      	pop	{r4}
     492:	bc08      	pop	{r3}
     494:	b004      	add	sp, #16
     496:	4718      	bx	r3
     498:	689b      	ldr	r3, [r3, #8]
     49a:	2b00      	cmp	r3, #0
     49c:	d0f3      	beq.n	486 <DiagPrintf+0x12>
     49e:	9802      	ldr	r0, [sp, #8]
     4a0:	4798      	blx	r3
     4a2:	2800      	cmp	r0, #0
     4a4:	d0ef      	beq.n	486 <DiagPrintf+0x12>
     4a6:	aa03      	add	r2, sp, #12
     4a8:	9902      	ldr	r1, [sp, #8]
     4aa:	f7ff fe33 	bl	114 <DiagVSprintf>
     4ae:	e7ef      	b.n	490 <DiagPrintf+0x1c>
     4b0:	2000      	movs	r0, #0
     4b2:	e7ed      	b.n	490 <DiagPrintf+0x1c>
     4b4:	000801c0 	.word	0x000801c0

000004b8 <DiagPrintfD>:
     4b8:	b40f      	push	{r0, r1, r2, r3}
     4ba:	4b07      	ldr	r3, [pc, #28]	; (4d8 <DiagPrintfD+0x20>)
     4bc:	681b      	ldr	r3, [r3, #0]
     4be:	b510      	push	{r4, lr}
     4c0:	2000      	movs	r0, #0
     4c2:	2b01      	cmp	r3, #1
     4c4:	d003      	beq.n	4ce <DiagPrintfD+0x16>
     4c6:	aa03      	add	r2, sp, #12
     4c8:	9902      	ldr	r1, [sp, #8]
     4ca:	f7ff fe23 	bl	114 <DiagVSprintf>
     4ce:	bc10      	pop	{r4}
     4d0:	bc08      	pop	{r3}
     4d2:	b004      	add	sp, #16
     4d4:	4718      	bx	r3
     4d6:	bf00      	nop
     4d8:	000801c0 	.word	0x000801c0

000004dc <DiagSPrintf>:
     4dc:	b40e      	push	{r1, r2, r3}
     4de:	4b07      	ldr	r3, [pc, #28]	; (4fc <DiagSPrintf+0x20>)
     4e0:	681a      	ldr	r2, [r3, #0]
     4e2:	b500      	push	{lr}
     4e4:	2300      	movs	r3, #0
     4e6:	2a01      	cmp	r2, #1
     4e8:	d004      	beq.n	4f4 <DiagSPrintf+0x18>
     4ea:	aa02      	add	r2, sp, #8
     4ec:	9901      	ldr	r1, [sp, #4]
     4ee:	f7ff fe11 	bl	114 <DiagVSprintf>
     4f2:	0003      	movs	r3, r0
     4f4:	0018      	movs	r0, r3
     4f6:	bc08      	pop	{r3}
     4f8:	b003      	add	sp, #12
     4fa:	4718      	bx	r3
     4fc:	000801c0 	.word	0x000801c0

00000500 <DiagSnPrintf>:
     500:	b40c      	push	{r2, r3}
     502:	b5f0      	push	{r4, r5, r6, r7, lr}
     504:	46de      	mov	lr, fp
     506:	4657      	mov	r7, sl
     508:	464e      	mov	r6, r9
     50a:	4645      	mov	r5, r8
     50c:	b5e0      	push	{r5, r6, r7, lr}
     50e:	b089      	sub	sp, #36	; 0x24
     510:	2800      	cmp	r0, #0
     512:	d071      	beq.n	5f8 <DiagSnPrintf+0xf8>
     514:	ab13      	add	r3, sp, #76	; 0x4c
     516:	9302      	str	r3, [sp, #8]
     518:	bb51      	cbnz	r1, 570 <DiagSnPrintf+0x70>
     51a:	2101      	movs	r1, #1
     51c:	4249      	negs	r1, r1
     51e:	9f12      	ldr	r7, [sp, #72]	; 0x48
     520:	783a      	ldrb	r2, [r7, #0]
     522:	2a00      	cmp	r2, #0
     524:	d100      	bne.n	528 <DiagSnPrintf+0x28>
     526:	e18b      	b.n	840 <DiagSnPrintf+0x340>
     528:	9300      	str	r3, [sp, #0]
     52a:	4bc7      	ldr	r3, [pc, #796]	; (848 <DiagSnPrintf+0x348>)
     52c:	0004      	movs	r4, r0
     52e:	469b      	mov	fp, r3
     530:	250f      	movs	r5, #15
     532:	003b      	movs	r3, r7
     534:	2a25      	cmp	r2, #37	; 0x25
     536:	d01d      	beq.n	574 <DiagSnPrintf+0x74>
     538:	1c63      	adds	r3, r4, #1
     53a:	7022      	strb	r2, [r4, #0]
     53c:	4299      	cmp	r1, r3
     53e:	d80d      	bhi.n	55c <DiagSnPrintf+0x5c>
     540:	1a18      	subs	r0, r3, r0
     542:	2200      	movs	r2, #0
     544:	701a      	strb	r2, [r3, #0]
     546:	b009      	add	sp, #36	; 0x24
     548:	bc3c      	pop	{r2, r3, r4, r5}
     54a:	4690      	mov	r8, r2
     54c:	4699      	mov	r9, r3
     54e:	46a2      	mov	sl, r4
     550:	46ab      	mov	fp, r5
     552:	bcf0      	pop	{r4, r5, r6, r7}
     554:	bc08      	pop	{r3}
     556:	b002      	add	sp, #8
     558:	4718      	bx	r3
     55a:	0023      	movs	r3, r4
     55c:	001c      	movs	r4, r3
     55e:	9e12      	ldr	r6, [sp, #72]	; 0x48
     560:	7872      	ldrb	r2, [r6, #1]
     562:	1c73      	adds	r3, r6, #1
     564:	9312      	str	r3, [sp, #72]	; 0x48
     566:	2a00      	cmp	r2, #0
     568:	d1e4      	bne.n	534 <DiagSnPrintf+0x34>
     56a:	1a20      	subs	r0, r4, r0
     56c:	0023      	movs	r3, r4
     56e:	e7e8      	b.n	542 <DiagSnPrintf+0x42>
     570:	1841      	adds	r1, r0, r1
     572:	e7d4      	b.n	51e <DiagSnPrintf+0x1e>
     574:	785f      	ldrb	r7, [r3, #1]
     576:	1c5e      	adds	r6, r3, #1
     578:	9612      	str	r6, [sp, #72]	; 0x48
     57a:	2f73      	cmp	r7, #115	; 0x73
     57c:	d074      	beq.n	668 <DiagSnPrintf+0x168>
     57e:	9a00      	ldr	r2, [sp, #0]
     580:	6812      	ldr	r2, [r2, #0]
     582:	2a0f      	cmp	r2, #15
     584:	dc3a      	bgt.n	5fc <DiagSnPrintf+0xfc>
     586:	003e      	movs	r6, r7
     588:	3e30      	subs	r6, #48	; 0x30
     58a:	f240 0c00 	movw	ip, #0
     58e:	2e09      	cmp	r6, #9
     590:	d81c      	bhi.n	5cc <DiagSnPrintf+0xcc>
     592:	2600      	movs	r6, #0
     594:	4694      	mov	ip, r2
     596:	4688      	mov	r8, r1
     598:	4681      	mov	r9, r0
     59a:	3302      	adds	r3, #2
     59c:	00b2      	lsls	r2, r6, #2
     59e:	1996      	adds	r6, r2, r6
     5a0:	0076      	lsls	r6, r6, #1
     5a2:	19f2      	adds	r2, r6, r7
     5a4:	781f      	ldrb	r7, [r3, #0]
     5a6:	0039      	movs	r1, r7
     5a8:	0016      	movs	r6, r2
     5aa:	3930      	subs	r1, #48	; 0x30
     5ac:	0018      	movs	r0, r3
     5ae:	3e30      	subs	r6, #48	; 0x30
     5b0:	3301      	adds	r3, #1
     5b2:	2909      	cmp	r1, #9
     5b4:	d9f2      	bls.n	59c <DiagSnPrintf+0x9c>
     5b6:	464e      	mov	r6, r9
     5b8:	0013      	movs	r3, r2
     5ba:	4681      	mov	r9, r0
     5bc:	3b31      	subs	r3, #49	; 0x31
     5be:	0030      	movs	r0, r6
     5c0:	464e      	mov	r6, r9
     5c2:	009b      	lsls	r3, r3, #2
     5c4:	4662      	mov	r2, ip
     5c6:	4641      	mov	r1, r8
     5c8:	469c      	mov	ip, r3
     5ca:	9612      	str	r6, [sp, #72]	; 0x48
     5cc:	2f78      	cmp	r7, #120	; 0x78
     5ce:	d06e      	beq.n	6ae <DiagSnPrintf+0x1ae>
     5d0:	2f58      	cmp	r7, #88	; 0x58
     5d2:	d100      	bne.n	5d6 <DiagSnPrintf+0xd6>
     5d4:	e0c7      	b.n	766 <DiagSnPrintf+0x266>
     5d6:	2f70      	cmp	r7, #112	; 0x70
     5d8:	d100      	bne.n	5dc <DiagSnPrintf+0xdc>
     5da:	e0d3      	b.n	784 <DiagSnPrintf+0x284>
     5dc:	2f50      	cmp	r7, #80	; 0x50
     5de:	d100      	bne.n	5e2 <DiagSnPrintf+0xe2>
     5e0:	e0e1      	b.n	7a6 <DiagSnPrintf+0x2a6>
     5e2:	2f64      	cmp	r7, #100	; 0x64
     5e4:	d100      	bne.n	5e8 <DiagSnPrintf+0xe8>
     5e6:	e0e5      	b.n	7b4 <DiagSnPrintf+0x2b4>
     5e8:	2f63      	cmp	r7, #99	; 0x63
     5ea:	d100      	bne.n	5ee <DiagSnPrintf+0xee>
     5ec:	e0c3      	b.n	776 <DiagSnPrintf+0x276>
     5ee:	ab02      	add	r3, sp, #8
     5f0:	711f      	strb	r7, [r3, #4]
     5f2:	ab02      	add	r3, sp, #8
     5f4:	1d5e      	adds	r6, r3, #5
     5f6:	e0a2      	b.n	73e <DiagSnPrintf+0x23e>
     5f8:	2000      	movs	r0, #0
     5fa:	e7a4      	b.n	546 <DiagSnPrintf+0x46>
     5fc:	0016      	movs	r6, r2
     5fe:	3e10      	subs	r6, #16
     600:	f240 0c04 	movw	ip, #4
     604:	2eef      	cmp	r6, #239	; 0xef
     606:	d92a      	bls.n	65e <DiagSnPrintf+0x15e>
     608:	f640 68ff 	movw	r8, #3839	; 0xeff
     60c:	1e56      	subs	r6, r2, #1
     60e:	3eff      	subs	r6, #255	; 0xff
     610:	f240 0c08 	movw	ip, #8
     614:	4546      	cmp	r6, r8
     616:	d922      	bls.n	65e <DiagSnPrintf+0x15e>
     618:	f64e 78ff 	movw	r8, #61439	; 0xefff
     61c:	4e8b      	ldr	r6, [pc, #556]	; (84c <DiagSnPrintf+0x34c>)
     61e:	1996      	adds	r6, r2, r6
     620:	f240 0c0c 	movw	ip, #12
     624:	4546      	cmp	r6, r8
     626:	d91a      	bls.n	65e <DiagSnPrintf+0x15e>
     628:	4e89      	ldr	r6, [pc, #548]	; (850 <DiagSnPrintf+0x350>)
     62a:	46b0      	mov	r8, r6
     62c:	4e89      	ldr	r6, [pc, #548]	; (854 <DiagSnPrintf+0x354>)
     62e:	1996      	adds	r6, r2, r6
     630:	f240 0c10 	movw	ip, #16
     634:	4546      	cmp	r6, r8
     636:	d912      	bls.n	65e <DiagSnPrintf+0x15e>
     638:	4e87      	ldr	r6, [pc, #540]	; (858 <DiagSnPrintf+0x358>)
     63a:	46b0      	mov	r8, r6
     63c:	4e87      	ldr	r6, [pc, #540]	; (85c <DiagSnPrintf+0x35c>)
     63e:	1996      	adds	r6, r2, r6
     640:	f240 0c14 	movw	ip, #20
     644:	4546      	cmp	r6, r8
     646:	d90a      	bls.n	65e <DiagSnPrintf+0x15e>
     648:	4e85      	ldr	r6, [pc, #532]	; (860 <DiagSnPrintf+0x360>)
     64a:	46b0      	mov	r8, r6
     64c:	26ff      	movs	r6, #255	; 0xff
     64e:	0636      	lsls	r6, r6, #24
     650:	1996      	adds	r6, r2, r6
     652:	f240 0c1c 	movw	ip, #28
     656:	4546      	cmp	r6, r8
     658:	d801      	bhi.n	65e <DiagSnPrintf+0x15e>
     65a:	f240 0c18 	movw	ip, #24
     65e:	003e      	movs	r6, r7
     660:	3e30      	subs	r6, #48	; 0x30
     662:	2e09      	cmp	r6, #9
     664:	d8b2      	bhi.n	5cc <DiagSnPrintf+0xcc>
     666:	e794      	b.n	592 <DiagSnPrintf+0x92>
     668:	9b00      	ldr	r3, [sp, #0]
     66a:	1d1a      	adds	r2, r3, #4
     66c:	681b      	ldr	r3, [r3, #0]
     66e:	4690      	mov	r8, r2
     670:	781a      	ldrb	r2, [r3, #0]
     672:	469c      	mov	ip, r3
     674:	2a00      	cmp	r2, #0
     676:	d100      	bne.n	67a <DiagSnPrintf+0x17a>
     678:	e0ff      	b.n	87a <DiagSnPrintf+0x37a>
     67a:	1c63      	adds	r3, r4, #1
     67c:	7022      	strb	r2, [r4, #0]
     67e:	428b      	cmp	r3, r1
     680:	d300      	bcc.n	684 <DiagSnPrintf+0x184>
     682:	e75d      	b.n	540 <DiagSnPrintf+0x40>
     684:	4662      	mov	r2, ip
     686:	46b4      	mov	ip, r6
     688:	000e      	movs	r6, r1
     68a:	0011      	movs	r1, r2
     68c:	e005      	b.n	69a <DiagSnPrintf+0x19a>
     68e:	3301      	adds	r3, #1
     690:	1e5f      	subs	r7, r3, #1
     692:	703a      	strb	r2, [r7, #0]
     694:	429e      	cmp	r6, r3
     696:	d100      	bne.n	69a <DiagSnPrintf+0x19a>
     698:	e752      	b.n	540 <DiagSnPrintf+0x40>
     69a:	1b1a      	subs	r2, r3, r4
     69c:	5c52      	ldrb	r2, [r2, r1]
     69e:	2a00      	cmp	r2, #0
     6a0:	d1f5      	bne.n	68e <DiagSnPrintf+0x18e>
     6a2:	4642      	mov	r2, r8
     6a4:	0031      	movs	r1, r6
     6a6:	9200      	str	r2, [sp, #0]
     6a8:	4666      	mov	r6, ip
     6aa:	001c      	movs	r4, r3
     6ac:	e758      	b.n	560 <DiagSnPrintf+0x60>
     6ae:	9b00      	ldr	r3, [sp, #0]
     6b0:	3304      	adds	r3, #4
     6b2:	9300      	str	r3, [sp, #0]
     6b4:	f240 0920 	movw	r9, #32
     6b8:	0013      	movs	r3, r2
     6ba:	ae03      	add	r6, sp, #12
     6bc:	2a00      	cmp	r2, #0
     6be:	d100      	bne.n	6c2 <DiagSnPrintf+0x1c2>
     6c0:	e0bb      	b.n	83a <DiagSnPrintf+0x33a>
     6c2:	f240 0800 	movw	r8, #0
     6c6:	468a      	mov	sl, r1
     6c8:	4641      	mov	r1, r8
     6ca:	4690      	mov	r8, r2
     6cc:	000a      	movs	r2, r1
     6ce:	002f      	movs	r7, r5
     6d0:	401f      	ands	r7, r3
     6d2:	1e79      	subs	r1, r7, #1
     6d4:	418f      	sbcs	r7, r1
     6d6:	091b      	lsrs	r3, r3, #4
     6d8:	19d2      	adds	r2, r2, r7
     6da:	2b00      	cmp	r3, #0
     6dc:	d1f7      	bne.n	6ce <DiagSnPrintf+0x1ce>
     6de:	0013      	movs	r3, r2
     6e0:	4651      	mov	r1, sl
     6e2:	4642      	mov	r2, r8
     6e4:	1e5f      	subs	r7, r3, #1
     6e6:	00bf      	lsls	r7, r7, #2
     6e8:	46e2      	mov	sl, ip
     6ea:	45bc      	cmp	ip, r7
     6ec:	da00      	bge.n	6f0 <DiagSnPrintf+0x1f0>
     6ee:	46ba      	mov	sl, r7
     6f0:	4653      	mov	r3, sl
     6f2:	2b00      	cmp	r3, #0
     6f4:	db1d      	blt.n	732 <DiagSnPrintf+0x232>
     6f6:	464b      	mov	r3, r9
     6f8:	466f      	mov	r7, sp
     6fa:	713b      	strb	r3, [r7, #4]
     6fc:	793b      	ldrb	r3, [r7, #4]
     6fe:	b25b      	sxtb	r3, r3
     700:	4699      	mov	r9, r3
     702:	468c      	mov	ip, r1
     704:	4680      	mov	r8, r0
     706:	0011      	movs	r1, r2
     708:	4657      	mov	r7, sl
     70a:	4648      	mov	r0, r9
     70c:	0032      	movs	r2, r6
     70e:	9401      	str	r4, [sp, #4]
     710:	000b      	movs	r3, r1
     712:	413b      	asrs	r3, r7
     714:	465c      	mov	r4, fp
     716:	402b      	ands	r3, r5
     718:	5ce3      	ldrb	r3, [r4, r3]
     71a:	4303      	orrs	r3, r0
     71c:	7013      	strb	r3, [r2, #0]
     71e:	3201      	adds	r2, #1
     720:	3f04      	subs	r7, #4
     722:	d5f5      	bpl.n	710 <DiagSnPrintf+0x210>
     724:	4653      	mov	r3, sl
     726:	4661      	mov	r1, ip
     728:	4640      	mov	r0, r8
     72a:	089b      	lsrs	r3, r3, #2
     72c:	3301      	adds	r3, #1
     72e:	9c01      	ldr	r4, [sp, #4]
     730:	18f6      	adds	r6, r6, r3
     732:	ab03      	add	r3, sp, #12
     734:	429e      	cmp	r6, r3
     736:	d800      	bhi.n	73a <DiagSnPrintf+0x23a>
     738:	e70f      	b.n	55a <DiagSnPrintf+0x5a>
     73a:	ab02      	add	r3, sp, #8
     73c:	791f      	ldrb	r7, [r3, #4]
     73e:	1c63      	adds	r3, r4, #1
     740:	7027      	strb	r7, [r4, #0]
     742:	4299      	cmp	r1, r3
     744:	d90b      	bls.n	75e <DiagSnPrintf+0x25e>
     746:	aa03      	add	r2, sp, #12
     748:	e005      	b.n	756 <DiagSnPrintf+0x256>
     74a:	3301      	adds	r3, #1
     74c:	7817      	ldrb	r7, [r2, #0]
     74e:	1e5c      	subs	r4, r3, #1
     750:	7027      	strb	r7, [r4, #0]
     752:	4299      	cmp	r1, r3
     754:	d004      	beq.n	760 <DiagSnPrintf+0x260>
     756:	3201      	adds	r2, #1
     758:	42b2      	cmp	r2, r6
     75a:	d3f6      	bcc.n	74a <DiagSnPrintf+0x24a>
     75c:	e6fe      	b.n	55c <DiagSnPrintf+0x5c>
     75e:	0019      	movs	r1, r3
     760:	1a08      	subs	r0, r1, r0
     762:	000b      	movs	r3, r1
     764:	e6ed      	b.n	542 <DiagSnPrintf+0x42>
     766:	9b00      	ldr	r3, [sp, #0]
     768:	3304      	adds	r3, #4
     76a:	9300      	str	r3, [sp, #0]
     76c:	f240 0900 	movw	r9, #0
     770:	0013      	movs	r3, r2
     772:	ae03      	add	r6, sp, #12
     774:	e7a2      	b.n	6bc <DiagSnPrintf+0x1bc>
     776:	9b00      	ldr	r3, [sp, #0]
     778:	3304      	adds	r3, #4
     77a:	9300      	str	r3, [sp, #0]
     77c:	b2d7      	uxtb	r7, r2
     77e:	ab02      	add	r3, sp, #8
     780:	711f      	strb	r7, [r3, #4]
     782:	e736      	b.n	5f2 <DiagSnPrintf+0xf2>
     784:	9b00      	ldr	r3, [sp, #0]
     786:	3304      	adds	r3, #4
     788:	9300      	str	r3, [sp, #0]
     78a:	f240 0920 	movw	r9, #32
     78e:	0013      	movs	r3, r2
     790:	2730      	movs	r7, #48	; 0x30
     792:	ae02      	add	r6, sp, #8
     794:	7137      	strb	r7, [r6, #4]
     796:	464f      	mov	r7, r9
     798:	2658      	movs	r6, #88	; 0x58
     79a:	433e      	orrs	r6, r7
     79c:	af02      	add	r7, sp, #8
     79e:	717e      	strb	r6, [r7, #5]
     7a0:	003e      	movs	r6, r7
     7a2:	3606      	adds	r6, #6
     7a4:	e78a      	b.n	6bc <DiagSnPrintf+0x1bc>
     7a6:	9b00      	ldr	r3, [sp, #0]
     7a8:	3304      	adds	r3, #4
     7aa:	9300      	str	r3, [sp, #0]
     7ac:	f240 0900 	movw	r9, #0
     7b0:	0013      	movs	r3, r2
     7b2:	e7ed      	b.n	790 <DiagSnPrintf+0x290>
     7b4:	9b00      	ldr	r3, [sp, #0]
     7b6:	3304      	adds	r3, #4
     7b8:	9300      	str	r3, [sp, #0]
     7ba:	2a00      	cmp	r2, #0
     7bc:	db52      	blt.n	864 <DiagSnPrintf+0x364>
     7be:	ab03      	add	r3, sp, #12
     7c0:	2600      	movs	r6, #0
     7c2:	4698      	mov	r8, r3
     7c4:	0033      	movs	r3, r6
     7c6:	4646      	mov	r6, r8
     7c8:	1af7      	subs	r7, r6, r3
     7ca:	4689      	mov	r9, r1
     7cc:	9001      	str	r0, [sp, #4]
     7ce:	f240 0a0a 	movw	sl, #10
     7d2:	0019      	movs	r1, r3
     7d4:	0038      	movs	r0, r7
     7d6:	fb92 f3fa 	sdiv	r3, r2, sl
     7da:	009f      	lsls	r7, r3, #2
     7dc:	18ff      	adds	r7, r7, r3
     7de:	007f      	lsls	r7, r7, #1
     7e0:	1bd7      	subs	r7, r2, r7
     7e2:	3730      	adds	r7, #48	; 0x30
     7e4:	5447      	strb	r7, [r0, r1]
     7e6:	3601      	adds	r6, #1
     7e8:	001a      	movs	r2, r3
     7ea:	3101      	adds	r1, #1
     7ec:	2b00      	cmp	r3, #0
     7ee:	d1f2      	bne.n	7d6 <DiagSnPrintf+0x2d6>
     7f0:	4662      	mov	r2, ip
     7f2:	000b      	movs	r3, r1
     7f4:	9801      	ldr	r0, [sp, #4]
     7f6:	4649      	mov	r1, r9
     7f8:	2a00      	cmp	r2, #0
     7fa:	db0e      	blt.n	81a <DiagSnPrintf+0x31a>
     7fc:	001a      	movs	r2, r3
     7fe:	4663      	mov	r3, ip
     800:	089b      	lsrs	r3, r3, #2
     802:	43db      	mvns	r3, r3
     804:	189b      	adds	r3, r3, r2
     806:	e002      	b.n	80e <DiagSnPrintf+0x30e>
     808:	3a01      	subs	r2, #1
     80a:	4293      	cmp	r3, r2
     80c:	d005      	beq.n	81a <DiagSnPrintf+0x31a>
     80e:	2a00      	cmp	r2, #0
     810:	dcfa      	bgt.n	808 <DiagSnPrintf+0x308>
     812:	2730      	movs	r7, #48	; 0x30
     814:	7037      	strb	r7, [r6, #0]
     816:	3601      	adds	r6, #1
     818:	e7f6      	b.n	808 <DiagSnPrintf+0x308>
     81a:	1e73      	subs	r3, r6, #1
     81c:	4598      	cmp	r8, r3
     81e:	d288      	bcs.n	732 <DiagSnPrintf+0x232>
     820:	4642      	mov	r2, r8
     822:	468c      	mov	ip, r1
     824:	7817      	ldrb	r7, [r2, #0]
     826:	7819      	ldrb	r1, [r3, #0]
     828:	3201      	adds	r2, #1
     82a:	701f      	strb	r7, [r3, #0]
     82c:	1e57      	subs	r7, r2, #1
     82e:	3b01      	subs	r3, #1
     830:	7039      	strb	r1, [r7, #0]
     832:	4293      	cmp	r3, r2
     834:	d8f6      	bhi.n	824 <DiagSnPrintf+0x324>
     836:	4661      	mov	r1, ip
     838:	e77b      	b.n	732 <DiagSnPrintf+0x232>
     83a:	2704      	movs	r7, #4
     83c:	427f      	negs	r7, r7
     83e:	e753      	b.n	6e8 <DiagSnPrintf+0x1e8>
     840:	0003      	movs	r3, r0
     842:	2000      	movs	r0, #0
     844:	e67d      	b.n	542 <DiagSnPrintf+0x42>
     846:	bf00      	nop
     848:	000205b8 	.word	0x000205b8
     84c:	fffff000 	.word	0xfffff000
     850:	000effff 	.word	0x000effff
     854:	ffff0000 	.word	0xffff0000
     858:	00efffff 	.word	0x00efffff
     85c:	fff00000 	.word	0xfff00000
     860:	0effffff 	.word	0x0effffff
     864:	262d      	movs	r6, #45	; 0x2d
     866:	ab02      	add	r3, sp, #8
     868:	af02      	add	r7, sp, #8
     86a:	711e      	strb	r6, [r3, #4]
     86c:	46b8      	mov	r8, r7
     86e:	2305      	movs	r3, #5
     870:	4443      	add	r3, r8
     872:	4252      	negs	r2, r2
     874:	3e2c      	subs	r6, #44	; 0x2c
     876:	4698      	mov	r8, r3
     878:	e7a4      	b.n	7c4 <DiagSnPrintf+0x2c4>
     87a:	4643      	mov	r3, r8
     87c:	9300      	str	r3, [sp, #0]
     87e:	e66f      	b.n	560 <DiagSnPrintf+0x60>

00000880 <cmd_rom_help>:
     880:	b5f8      	push	{r3, r4, r5, r6, r7, lr}
     882:	4e10      	ldr	r6, [pc, #64]	; (8c4 <cmd_rom_help+0x44>)
     884:	6833      	ldr	r3, [r6, #0]
     886:	03db      	lsls	r3, r3, #15
     888:	d502      	bpl.n	890 <cmd_rom_help+0x10>
     88a:	480f      	ldr	r0, [pc, #60]	; (8c8 <cmd_rom_help+0x48>)
     88c:	f7ff fdf2 	bl	474 <DiagPrintf>
     890:	4c0e      	ldr	r4, [pc, #56]	; (8cc <cmd_rom_help+0x4c>)
     892:	2780      	movs	r7, #128	; 0x80
     894:	0025      	movs	r5, r4
     896:	027f      	lsls	r7, r7, #9
     898:	350c      	adds	r5, #12
     89a:	346c      	adds	r4, #108	; 0x6c
     89c:	6829      	ldr	r1, [r5, #0]
     89e:	b129      	cbz	r1, 8ac <cmd_rom_help+0x2c>
     8a0:	6833      	ldr	r3, [r6, #0]
     8a2:	423b      	tst	r3, r7
     8a4:	d002      	beq.n	8ac <cmd_rom_help+0x2c>
     8a6:	480a      	ldr	r0, [pc, #40]	; (8d0 <cmd_rom_help+0x50>)
     8a8:	f7ff fde4 	bl	474 <DiagPrintf>
     8ac:	3510      	adds	r5, #16
     8ae:	42a5      	cmp	r5, r4
     8b0:	d1f4      	bne.n	89c <cmd_rom_help+0x1c>
     8b2:	6833      	ldr	r3, [r6, #0]
     8b4:	03db      	lsls	r3, r3, #15
     8b6:	d502      	bpl.n	8be <cmd_rom_help+0x3e>
     8b8:	4806      	ldr	r0, [pc, #24]	; (8d4 <cmd_rom_help+0x54>)
     8ba:	f7ff fddb 	bl	474 <DiagPrintf>
     8be:	2001      	movs	r0, #1
     8c0:	bdf8      	pop	{r3, r4, r5, r6, r7, pc}
     8c2:	bf00      	nop
     8c4:	000801cc 	.word	0x000801cc
     8c8:	000205c9 	.word	0x000205c9
     8cc:	00020004 	.word	0x00020004
     8d0:	00020601 	.word	0x00020601
     8d4:	00020605 	.word	0x00020605

000008d8 <cmd_write_word>:
     8d8:	b570      	push	{r4, r5, r6, lr}
     8da:	000e      	movs	r6, r1
     8dc:	4d0c      	ldr	r5, [pc, #48]	; (910 <cmd_write_word+0x38>)
     8de:	2210      	movs	r2, #16
     8e0:	2100      	movs	r1, #0
     8e2:	6830      	ldr	r0, [r6, #0]
     8e4:	47a8      	blx	r5
     8e6:	2303      	movs	r3, #3
     8e8:	4398      	bics	r0, r3
     8ea:	0004      	movs	r4, r0
     8ec:	2210      	movs	r2, #16
     8ee:	2100      	movs	r1, #0
     8f0:	6870      	ldr	r0, [r6, #4]
     8f2:	47a8      	blx	r5
     8f4:	4b07      	ldr	r3, [pc, #28]	; (914 <cmd_write_word+0x3c>)
     8f6:	681b      	ldr	r3, [r3, #0]
     8f8:	0005      	movs	r5, r0
     8fa:	03db      	lsls	r3, r3, #15
     8fc:	d504      	bpl.n	908 <cmd_write_word+0x30>
     8fe:	0002      	movs	r2, r0
     900:	0021      	movs	r1, r4
     902:	4805      	ldr	r0, [pc, #20]	; (918 <cmd_write_word+0x40>)
     904:	f7ff fdb6 	bl	474 <DiagPrintf>
     908:	6025      	str	r5, [r4, #0]
     90a:	2000      	movs	r0, #0
     90c:	bd70      	pop	{r4, r5, r6, pc}
     90e:	bf00      	nop
     910:	000079d9 	.word	0x000079d9
     914:	000801cc 	.word	0x000801cc
     918:	0002063d 	.word	0x0002063d

0000091c <cmd_dump_word>:
     91c:	b5f8      	push	{r3, r4, r5, r6, r7, lr}
     91e:	4b2d      	ldr	r3, [pc, #180]	; (9d4 <cmd_dump_word+0xb8>)
     920:	4f2d      	ldr	r7, [pc, #180]	; (9d8 <cmd_dump_word+0xbc>)
     922:	681b      	ldr	r3, [r3, #0]
     924:	b938      	cbnz	r0, 936 <cmd_dump_word+0x1a>
     926:	683b      	ldr	r3, [r7, #0]
     928:	2400      	movs	r4, #0
     92a:	03db      	lsls	r3, r3, #15
     92c:	d550      	bpl.n	9d0 <cmd_dump_word+0xb4>
     92e:	482b      	ldr	r0, [pc, #172]	; (9dc <cmd_dump_word+0xc0>)
     930:	f7ff fda0 	bl	474 <DiagPrintf>
     934:	e04c      	b.n	9d0 <cmd_dump_word+0xb4>
     936:	6808      	ldr	r0, [r1, #0]
     938:	2800      	cmp	r0, #0
     93a:	d0f4      	beq.n	926 <cmd_dump_word+0xa>
     93c:	2580      	movs	r5, #128	; 0x80
     93e:	02ed      	lsls	r5, r5, #11
     940:	401d      	ands	r5, r3
     942:	2210      	movs	r2, #16
     944:	2100      	movs	r1, #0
     946:	4b26      	ldr	r3, [pc, #152]	; (9e0 <cmd_dump_word+0xc4>)
     948:	2680      	movs	r6, #128	; 0x80
     94a:	4798      	blx	r3
     94c:	0536      	lsls	r6, r6, #20
     94e:	4006      	ands	r6, r0
     950:	0004      	movs	r4, r0
     952:	b11e      	cbz	r6, 95c <cmd_dump_word+0x40>
     954:	b115      	cbz	r5, 95c <cmd_dump_word+0x40>
     956:	2000      	movs	r0, #0
     958:	4b22      	ldr	r3, [pc, #136]	; (9e4 <cmd_dump_word+0xc8>)
     95a:	4798      	blx	r3
     95c:	683b      	ldr	r3, [r7, #0]
     95e:	03db      	lsls	r3, r3, #15
     960:	d506      	bpl.n	970 <cmd_dump_word+0x54>
     962:	2303      	movs	r3, #3
     964:	0021      	movs	r1, r4
     966:	4399      	bics	r1, r3
     968:	680a      	ldr	r2, [r1, #0]
     96a:	481f      	ldr	r0, [pc, #124]	; (9e8 <cmd_dump_word+0xcc>)
     96c:	f7ff fd82 	bl	474 <DiagPrintf>
     970:	2401      	movs	r4, #1
     972:	b36e      	cbz	r6, 9d0 <cmd_dump_word+0xb4>
     974:	b365      	cbz	r5, 9d0 <cmd_dump_word+0xb4>
     976:	0020      	movs	r0, r4
     978:	4b1a      	ldr	r3, [pc, #104]	; (9e4 <cmd_dump_word+0xc8>)
     97a:	4798      	blx	r3
     97c:	f3bf 8f4f 	dsb	sy
     980:	f3bf 8f6f 	isb	sy
     984:	2300      	movs	r3, #0
     986:	f240 2150 	movw	r1, #592	; 0x250
     98a:	4a18      	ldr	r2, [pc, #96]	; (9ec <cmd_dump_word+0xd0>)
     98c:	5053      	str	r3, [r2, r1]
     98e:	f3bf 8f4f 	dsb	sy
     992:	f3bf 8f6f 	isb	sy
     996:	4916      	ldr	r1, [pc, #88]	; (9f0 <cmd_dump_word+0xd4>)
     998:	67cb      	str	r3, [r1, #124]	; 0x7c
     99a:	f3bf 8f4f 	dsb	sy
     99e:	f643 76e0 	movw	r6, #16352	; 0x3fe0
     9a2:	f240 2760 	movw	r7, #608	; 0x260
     9a6:	4b13      	ldr	r3, [pc, #76]	; (9f4 <cmd_dump_word+0xd8>)
     9a8:	6fd9      	ldr	r1, [r3, #124]	; 0x7c
     9aa:	010b      	lsls	r3, r1, #4
     9ac:	04c9      	lsls	r1, r1, #19
     9ae:	0c5b      	lsrs	r3, r3, #17
     9b0:	0d88      	lsrs	r0, r1, #22
     9b2:	0001      	movs	r1, r0
     9b4:	015d      	lsls	r5, r3, #5
     9b6:	4035      	ands	r5, r6
     9b8:	07cc      	lsls	r4, r1, #31
     9ba:	432c      	orrs	r4, r5
     9bc:	51d4      	str	r4, [r2, r7]
     9be:	3901      	subs	r1, #1
     9c0:	d2fa      	bcs.n	9b8 <cmd_dump_word+0x9c>
     9c2:	3b01      	subs	r3, #1
     9c4:	d2f5      	bcs.n	9b2 <cmd_dump_word+0x96>
     9c6:	f3bf 8f4f 	dsb	sy
     9ca:	f3bf 8f6f 	isb	sy
     9ce:	2401      	movs	r4, #1
     9d0:	0020      	movs	r0, r4
     9d2:	bdf8      	pop	{r3, r4, r5, r6, r7, pc}
     9d4:	4800022c 	.word	0x4800022c
     9d8:	000801cc 	.word	0x000801cc
     9dc:	0002064a 	.word	0x0002064a
     9e0:	000079d9 	.word	0x000079d9
     9e4:	00003595 	.word	0x00003595
     9e8:	0002063d 	.word	0x0002063d
     9ec:	e000ed00 	.word	0xe000ed00
     9f0:	e000ed08 	.word	0xe000ed08
     9f4:	e000ed04 	.word	0xe000ed04

000009f8 <cmd_flash>:
     9f8:	b5f0      	push	{r4, r5, r6, r7, lr}
     9fa:	000c      	movs	r4, r1
     9fc:	b087      	sub	sp, #28
     9fe:	49cd      	ldr	r1, [pc, #820]	; (d34 <cmd_flash+0x33c>)
     a00:	6820      	ldr	r0, [r4, #0]
     a02:	4ecd      	ldr	r6, [pc, #820]	; (d38 <cmd_flash+0x340>)
     a04:	47b0      	blx	r6
     a06:	2800      	cmp	r0, #0
     a08:	d000      	beq.n	a0c <cmd_flash+0x14>
     a0a:	e080      	b.n	b0e <cmd_flash+0x116>
     a0c:	4dcb      	ldr	r5, [pc, #812]	; (d3c <cmd_flash+0x344>)
     a0e:	682b      	ldr	r3, [r5, #0]
     a10:	03db      	lsls	r3, r3, #15
     a12:	d502      	bpl.n	a1a <cmd_flash+0x22>
     a14:	48ca      	ldr	r0, [pc, #808]	; (d40 <cmd_flash+0x348>)
     a16:	f7ff fd2d 	bl	474 <DiagPrintf>
     a1a:	2100      	movs	r1, #0
     a1c:	2210      	movs	r2, #16
     a1e:	68a0      	ldr	r0, [r4, #8]
     a20:	4bc8      	ldr	r3, [pc, #800]	; (d44 <cmd_flash+0x34c>)
     a22:	4798      	blx	r3
     a24:	49c8      	ldr	r1, [pc, #800]	; (d48 <cmd_flash+0x350>)
     a26:	0007      	movs	r7, r0
     a28:	6860      	ldr	r0, [r4, #4]
     a2a:	47b0      	blx	r6
     a2c:	b970      	cbnz	r0, a4c <cmd_flash+0x54>
     a2e:	682b      	ldr	r3, [r5, #0]
     a30:	03db      	lsls	r3, r3, #15
     a32:	d502      	bpl.n	a3a <cmd_flash+0x42>
     a34:	48c5      	ldr	r0, [pc, #788]	; (d4c <cmd_flash+0x354>)
     a36:	f7ff fd1d 	bl	474 <DiagPrintf>
     a3a:	2100      	movs	r1, #0
     a3c:	4bc4      	ldr	r3, [pc, #784]	; (d50 <cmd_flash+0x358>)
     a3e:	0008      	movs	r0, r1
     a40:	4798      	blx	r3
     a42:	682b      	ldr	r3, [r5, #0]
     a44:	48c3      	ldr	r0, [pc, #780]	; (d54 <cmd_flash+0x35c>)
     a46:	03db      	lsls	r3, r3, #15
     a48:	d529      	bpl.n	a9e <cmd_flash+0xa6>
     a4a:	e026      	b.n	a9a <cmd_flash+0xa2>
     a4c:	49c2      	ldr	r1, [pc, #776]	; (d58 <cmd_flash+0x360>)
     a4e:	6860      	ldr	r0, [r4, #4]
     a50:	47b0      	blx	r6
     a52:	b978      	cbnz	r0, a74 <cmd_flash+0x7c>
     a54:	682b      	ldr	r3, [r5, #0]
     a56:	03db      	lsls	r3, r3, #15
     a58:	d503      	bpl.n	a62 <cmd_flash+0x6a>
     a5a:	0039      	movs	r1, r7
     a5c:	48bf      	ldr	r0, [pc, #764]	; (d5c <cmd_flash+0x364>)
     a5e:	f7ff fd09 	bl	474 <DiagPrintf>
     a62:	2001      	movs	r0, #1
     a64:	4bba      	ldr	r3, [pc, #744]	; (d50 <cmd_flash+0x358>)
     a66:	0039      	movs	r1, r7
     a68:	4798      	blx	r3
     a6a:	682b      	ldr	r3, [r5, #0]
     a6c:	48bc      	ldr	r0, [pc, #752]	; (d60 <cmd_flash+0x368>)
     a6e:	03db      	lsls	r3, r3, #15
     a70:	d515      	bpl.n	a9e <cmd_flash+0xa6>
     a72:	e012      	b.n	a9a <cmd_flash+0xa2>
     a74:	49bb      	ldr	r1, [pc, #748]	; (d64 <cmd_flash+0x36c>)
     a76:	6860      	ldr	r0, [r4, #4]
     a78:	47b0      	blx	r6
     a7a:	b980      	cbnz	r0, a9e <cmd_flash+0xa6>
     a7c:	682b      	ldr	r3, [r5, #0]
     a7e:	03db      	lsls	r3, r3, #15
     a80:	d503      	bpl.n	a8a <cmd_flash+0x92>
     a82:	0039      	movs	r1, r7
     a84:	48b8      	ldr	r0, [pc, #736]	; (d68 <cmd_flash+0x370>)
     a86:	f7ff fcf5 	bl	474 <DiagPrintf>
     a8a:	4bb1      	ldr	r3, [pc, #708]	; (d50 <cmd_flash+0x358>)
     a8c:	0039      	movs	r1, r7
     a8e:	2002      	movs	r0, #2
     a90:	4798      	blx	r3
     a92:	682b      	ldr	r3, [r5, #0]
     a94:	03db      	lsls	r3, r3, #15
     a96:	d502      	bpl.n	a9e <cmd_flash+0xa6>
     a98:	48b4      	ldr	r0, [pc, #720]	; (d6c <cmd_flash+0x374>)
     a9a:	f7ff fceb 	bl	474 <DiagPrintf>
     a9e:	4ab4      	ldr	r2, [pc, #720]	; (d70 <cmd_flash+0x378>)
     aa0:	2104      	movs	r1, #4
     aa2:	2000      	movs	r0, #0
     aa4:	4bb3      	ldr	r3, [pc, #716]	; (d74 <cmd_flash+0x37c>)
     aa6:	4798      	blx	r3
     aa8:	f3bf 8f4f 	dsb	sy
     aac:	f3bf 8f6f 	isb	sy
     ab0:	2300      	movs	r3, #0
     ab2:	f240 2150 	movw	r1, #592	; 0x250
     ab6:	4ab0      	ldr	r2, [pc, #704]	; (d78 <cmd_flash+0x380>)
     ab8:	5053      	str	r3, [r2, r1]
     aba:	f3bf 8f4f 	dsb	sy
     abe:	f3bf 8f6f 	isb	sy
     ac2:	49ae      	ldr	r1, [pc, #696]	; (d7c <cmd_flash+0x384>)
     ac4:	67cb      	str	r3, [r1, #124]	; 0x7c
     ac6:	f3bf 8f4f 	dsb	sy
     aca:	f240 2c60 	movw	ip, #608	; 0x260
     ace:	4bac      	ldr	r3, [pc, #688]	; (d80 <cmd_flash+0x388>)
     ad0:	6fd9      	ldr	r1, [r3, #124]	; 0x7c
     ad2:	010b      	lsls	r3, r1, #4
     ad4:	04c9      	lsls	r1, r1, #19
     ad6:	0d89      	lsrs	r1, r1, #22
     ad8:	9102      	str	r1, [sp, #8]
     ada:	0c5b      	lsrs	r3, r3, #17
     adc:	f643 71e0 	movw	r1, #16352	; 0x3fe0
     ae0:	015f      	lsls	r7, r3, #5
     ae2:	400f      	ands	r7, r1
     ae4:	9703      	str	r7, [sp, #12]
     ae6:	9902      	ldr	r1, [sp, #8]
     ae8:	9f03      	ldr	r7, [sp, #12]
     aea:	07c8      	lsls	r0, r1, #31
     aec:	4338      	orrs	r0, r7
     aee:	4667      	mov	r7, ip
     af0:	51d0      	str	r0, [r2, r7]
     af2:	3901      	subs	r1, #1
     af4:	d2f8      	bcs.n	ae8 <cmd_flash+0xf0>
     af6:	3b01      	subs	r3, #1
     af8:	d2f0      	bcs.n	adc <cmd_flash+0xe4>
     afa:	f3bf 8f4f 	dsb	sy
     afe:	f3bf 8f6f 	isb	sy
     b02:	682b      	ldr	r3, [r5, #0]
     b04:	03db      	lsls	r3, r3, #15
     b06:	d502      	bpl.n	b0e <cmd_flash+0x116>
     b08:	489e      	ldr	r0, [pc, #632]	; (d84 <cmd_flash+0x38c>)
     b0a:	f7ff fcb3 	bl	474 <DiagPrintf>
     b0e:	499e      	ldr	r1, [pc, #632]	; (d88 <cmd_flash+0x390>)
     b10:	6820      	ldr	r0, [r4, #0]
     b12:	47b0      	blx	r6
     b14:	2800      	cmp	r0, #0
     b16:	d169      	bne.n	bec <cmd_flash+0x1f4>
     b18:	2680      	movs	r6, #128	; 0x80
     b1a:	4b9c      	ldr	r3, [pc, #624]	; (d8c <cmd_flash+0x394>)
     b1c:	681b      	ldr	r3, [r3, #0]
     b1e:	02f6      	lsls	r6, r6, #11
     b20:	401e      	ands	r6, r3
     b22:	4b86      	ldr	r3, [pc, #536]	; (d3c <cmd_flash+0x344>)
     b24:	681b      	ldr	r3, [r3, #0]
     b26:	03db      	lsls	r3, r3, #15
     b28:	d502      	bpl.n	b30 <cmd_flash+0x138>
     b2a:	4899      	ldr	r0, [pc, #612]	; (d90 <cmd_flash+0x398>)
     b2c:	f7ff fca2 	bl	474 <DiagPrintf>
     b30:	b116      	cbz	r6, b38 <cmd_flash+0x140>
     b32:	2000      	movs	r0, #0
     b34:	4b97      	ldr	r3, [pc, #604]	; (d94 <cmd_flash+0x39c>)
     b36:	4798      	blx	r3
     b38:	4f82      	ldr	r7, [pc, #520]	; (d44 <cmd_flash+0x34c>)
     b3a:	2210      	movs	r2, #16
     b3c:	2100      	movs	r1, #0
     b3e:	6860      	ldr	r0, [r4, #4]
     b40:	47b8      	blx	r7
     b42:	220a      	movs	r2, #10
     b44:	0005      	movs	r5, r0
     b46:	2100      	movs	r1, #0
     b48:	68a0      	ldr	r0, [r4, #8]
     b4a:	47b8      	blx	r7
     b4c:	2700      	movs	r7, #0
     b4e:	0883      	lsrs	r3, r0, #2
     b50:	9302      	str	r3, [sp, #8]
     b52:	9b02      	ldr	r3, [sp, #8]
     b54:	429f      	cmp	r7, r3
     b56:	d01b      	beq.n	b90 <cmd_flash+0x198>
     b58:	2280      	movs	r2, #128	; 0x80
     b5a:	4b78      	ldr	r3, [pc, #480]	; (d3c <cmd_flash+0x344>)
     b5c:	681b      	ldr	r3, [r3, #0]
     b5e:	0252      	lsls	r2, r2, #9
     b60:	4213      	tst	r3, r2
     b62:	d012      	beq.n	b8a <cmd_flash+0x192>
     b64:	2380      	movs	r3, #128	; 0x80
     b66:	051b      	lsls	r3, r3, #20
     b68:	18eb      	adds	r3, r5, r3
     b6a:	681a      	ldr	r2, [r3, #0]
     b6c:	498a      	ldr	r1, [pc, #552]	; (d98 <cmd_flash+0x3a0>)
     b6e:	4b8b      	ldr	r3, [pc, #556]	; (d9c <cmd_flash+0x3a4>)
     b70:	488b      	ldr	r0, [pc, #556]	; (da0 <cmd_flash+0x3a8>)
     b72:	18eb      	adds	r3, r5, r3
     b74:	1869      	adds	r1, r5, r1
     b76:	1828      	adds	r0, r5, r0
     b78:	681b      	ldr	r3, [r3, #0]
     b7a:	6809      	ldr	r1, [r1, #0]
     b7c:	6800      	ldr	r0, [r0, #0]
     b7e:	9100      	str	r1, [sp, #0]
     b80:	9001      	str	r0, [sp, #4]
     b82:	0029      	movs	r1, r5
     b84:	4887      	ldr	r0, [pc, #540]	; (da4 <cmd_flash+0x3ac>)
     b86:	f7ff fc75 	bl	474 <DiagPrintf>
     b8a:	3510      	adds	r5, #16
     b8c:	3701      	adds	r7, #1
     b8e:	e7e0      	b.n	b52 <cmd_flash+0x15a>
     b90:	b366      	cbz	r6, bec <cmd_flash+0x1f4>
     b92:	2001      	movs	r0, #1
     b94:	4b7f      	ldr	r3, [pc, #508]	; (d94 <cmd_flash+0x39c>)
     b96:	4798      	blx	r3
     b98:	f3bf 8f4f 	dsb	sy
     b9c:	f3bf 8f6f 	isb	sy
     ba0:	2300      	movs	r3, #0
     ba2:	f240 2150 	movw	r1, #592	; 0x250
     ba6:	4a74      	ldr	r2, [pc, #464]	; (d78 <cmd_flash+0x380>)
     ba8:	5053      	str	r3, [r2, r1]
     baa:	f3bf 8f4f 	dsb	sy
     bae:	f3bf 8f6f 	isb	sy
     bb2:	4972      	ldr	r1, [pc, #456]	; (d7c <cmd_flash+0x384>)
     bb4:	67cb      	str	r3, [r1, #124]	; 0x7c
     bb6:	f3bf 8f4f 	dsb	sy
     bba:	f240 2c60 	movw	ip, #608	; 0x260
     bbe:	4b70      	ldr	r3, [pc, #448]	; (d80 <cmd_flash+0x388>)
     bc0:	6fd9      	ldr	r1, [r3, #124]	; 0x7c
     bc2:	010b      	lsls	r3, r1, #4
     bc4:	04c9      	lsls	r1, r1, #19
     bc6:	0c5b      	lsrs	r3, r3, #17
     bc8:	0d88      	lsrs	r0, r1, #22
     bca:	f643 71e0 	movw	r1, #16352	; 0x3fe0
     bce:	015e      	lsls	r6, r3, #5
     bd0:	400e      	ands	r6, r1
     bd2:	0001      	movs	r1, r0
     bd4:	4667      	mov	r7, ip
     bd6:	07cd      	lsls	r5, r1, #31
     bd8:	4335      	orrs	r5, r6
     bda:	51d5      	str	r5, [r2, r7]
     bdc:	3901      	subs	r1, #1
     bde:	d2f9      	bcs.n	bd4 <cmd_flash+0x1dc>
     be0:	3b01      	subs	r3, #1
     be2:	d2f2      	bcs.n	bca <cmd_flash+0x1d2>
     be4:	f3bf 8f4f 	dsb	sy
     be8:	f3bf 8f6f 	isb	sy
     bec:	496e      	ldr	r1, [pc, #440]	; (da8 <cmd_flash+0x3b0>)
     bee:	6820      	ldr	r0, [r4, #0]
     bf0:	4b51      	ldr	r3, [pc, #324]	; (d38 <cmd_flash+0x340>)
     bf2:	4798      	blx	r3
     bf4:	0005      	movs	r5, r0
     bf6:	2800      	cmp	r0, #0
     bf8:	d143      	bne.n	c82 <cmd_flash+0x28a>
     bfa:	0001      	movs	r1, r0
     bfc:	9005      	str	r0, [sp, #20]
     bfe:	2210      	movs	r2, #16
     c00:	4f50      	ldr	r7, [pc, #320]	; (d44 <cmd_flash+0x34c>)
     c02:	6860      	ldr	r0, [r4, #4]
     c04:	47b8      	blx	r7
     c06:	2210      	movs	r2, #16
     c08:	0006      	movs	r6, r0
     c0a:	0029      	movs	r1, r5
     c0c:	68a0      	ldr	r0, [r4, #8]
     c0e:	47b8      	blx	r7
     c10:	4b4a      	ldr	r3, [pc, #296]	; (d3c <cmd_flash+0x344>)
     c12:	681b      	ldr	r3, [r3, #0]
     c14:	0002      	movs	r2, r0
     c16:	9005      	str	r0, [sp, #20]
     c18:	03db      	lsls	r3, r3, #15
     c1a:	d503      	bpl.n	c24 <cmd_flash+0x22c>
     c1c:	0031      	movs	r1, r6
     c1e:	4863      	ldr	r0, [pc, #396]	; (dac <cmd_flash+0x3b4>)
     c20:	f7ff fc28 	bl	474 <DiagPrintf>
     c24:	aa05      	add	r2, sp, #20
     c26:	2104      	movs	r1, #4
     c28:	0030      	movs	r0, r6
     c2a:	4b52      	ldr	r3, [pc, #328]	; (d74 <cmd_flash+0x37c>)
     c2c:	4798      	blx	r3
     c2e:	f3bf 8f4f 	dsb	sy
     c32:	f3bf 8f6f 	isb	sy
     c36:	2300      	movs	r3, #0
     c38:	f240 2150 	movw	r1, #592	; 0x250
     c3c:	4a4e      	ldr	r2, [pc, #312]	; (d78 <cmd_flash+0x380>)
     c3e:	5053      	str	r3, [r2, r1]
     c40:	f3bf 8f4f 	dsb	sy
     c44:	f3bf 8f6f 	isb	sy
     c48:	494c      	ldr	r1, [pc, #304]	; (d7c <cmd_flash+0x384>)
     c4a:	67cb      	str	r3, [r1, #124]	; 0x7c
     c4c:	f3bf 8f4f 	dsb	sy
     c50:	4b4b      	ldr	r3, [pc, #300]	; (d80 <cmd_flash+0x388>)
     c52:	6fd9      	ldr	r1, [r3, #124]	; 0x7c
     c54:	010b      	lsls	r3, r1, #4
     c56:	04c9      	lsls	r1, r1, #19
     c58:	0d89      	lsrs	r1, r1, #22
     c5a:	468c      	mov	ip, r1
     c5c:	f643 76e0 	movw	r6, #16352	; 0x3fe0
     c60:	f240 2760 	movw	r7, #608	; 0x260
     c64:	0c5b      	lsrs	r3, r3, #17
     c66:	4661      	mov	r1, ip
     c68:	015d      	lsls	r5, r3, #5
     c6a:	4035      	ands	r5, r6
     c6c:	07c8      	lsls	r0, r1, #31
     c6e:	4328      	orrs	r0, r5
     c70:	51d0      	str	r0, [r2, r7]
     c72:	3901      	subs	r1, #1
     c74:	d2fa      	bcs.n	c6c <cmd_flash+0x274>
     c76:	3b01      	subs	r3, #1
     c78:	d2f5      	bcs.n	c66 <cmd_flash+0x26e>
     c7a:	f3bf 8f4f 	dsb	sy
     c7e:	f3bf 8f6f 	isb	sy
     c82:	494b      	ldr	r1, [pc, #300]	; (db0 <cmd_flash+0x3b8>)
     c84:	6820      	ldr	r0, [r4, #0]
     c86:	4b2c      	ldr	r3, [pc, #176]	; (d38 <cmd_flash+0x340>)
     c88:	4798      	blx	r3
     c8a:	0001      	movs	r1, r0
     c8c:	2800      	cmp	r0, #0
     c8e:	d000      	beq.n	c92 <cmd_flash+0x29a>
     c90:	e0a2      	b.n	dd8 <cmd_flash+0x3e0>
     c92:	4b2c      	ldr	r3, [pc, #176]	; (d44 <cmd_flash+0x34c>)
     c94:	2210      	movs	r2, #16
     c96:	68a0      	ldr	r0, [r4, #8]
     c98:	260b      	movs	r6, #11
     c9a:	4798      	blx	r3
     c9c:	ab02      	add	r3, sp, #8
     c9e:	18f6      	adds	r6, r6, r3
     ca0:	7030      	strb	r0, [r6, #0]
     ca2:	4944      	ldr	r1, [pc, #272]	; (db4 <cmd_flash+0x3bc>)
     ca4:	6860      	ldr	r0, [r4, #4]
     ca6:	4b24      	ldr	r3, [pc, #144]	; (d38 <cmd_flash+0x340>)
     ca8:	4798      	blx	r3
     caa:	b9d8      	cbnz	r0, ce4 <cmd_flash+0x2ec>
     cac:	4d42      	ldr	r5, [pc, #264]	; (db8 <cmd_flash+0x3c0>)
     cae:	002b      	movs	r3, r5
     cb0:	af05      	add	r7, sp, #20
     cb2:	334e      	adds	r3, #78	; 0x4e
     cb4:	7818      	ldrb	r0, [r3, #0]
     cb6:	003a      	movs	r2, r7
     cb8:	4b40      	ldr	r3, [pc, #256]	; (dbc <cmd_flash+0x3c4>)
     cba:	2101      	movs	r1, #1
     cbc:	4798      	blx	r3
     cbe:	69ab      	ldr	r3, [r5, #24]
     cc0:	b13b      	cbz	r3, cd2 <cmd_flash+0x2da>
     cc2:	220d      	movs	r2, #13
     cc4:	ab02      	add	r3, sp, #8
     cc6:	354f      	adds	r5, #79	; 0x4f
     cc8:	18d2      	adds	r2, r2, r3
     cca:	7828      	ldrb	r0, [r5, #0]
     ccc:	2101      	movs	r1, #1
     cce:	4b3b      	ldr	r3, [pc, #236]	; (dbc <cmd_flash+0x3c4>)
     cd0:	4798      	blx	r3
     cd2:	4b1a      	ldr	r3, [pc, #104]	; (d3c <cmd_flash+0x344>)
     cd4:	681b      	ldr	r3, [r3, #0]
     cd6:	03db      	lsls	r3, r3, #15
     cd8:	d504      	bpl.n	ce4 <cmd_flash+0x2ec>
     cda:	787a      	ldrb	r2, [r7, #1]
     cdc:	7839      	ldrb	r1, [r7, #0]
     cde:	4838      	ldr	r0, [pc, #224]	; (dc0 <cmd_flash+0x3c8>)
     ce0:	f7ff fbc8 	bl	474 <DiagPrintf>
     ce4:	4937      	ldr	r1, [pc, #220]	; (dc4 <cmd_flash+0x3cc>)
     ce6:	6860      	ldr	r0, [r4, #4]
     ce8:	4b13      	ldr	r3, [pc, #76]	; (d38 <cmd_flash+0x340>)
     cea:	4798      	blx	r3
     cec:	b930      	cbnz	r0, cfc <cmd_flash+0x304>
     cee:	4b32      	ldr	r3, [pc, #200]	; (db8 <cmd_flash+0x3c0>)
     cf0:	3350      	adds	r3, #80	; 0x50
     cf2:	7818      	ldrb	r0, [r3, #0]
     cf4:	0032      	movs	r2, r6
     cf6:	2101      	movs	r1, #1
     cf8:	4b33      	ldr	r3, [pc, #204]	; (dc8 <cmd_flash+0x3d0>)
     cfa:	4798      	blx	r3
     cfc:	4933      	ldr	r1, [pc, #204]	; (dcc <cmd_flash+0x3d4>)
     cfe:	6860      	ldr	r0, [r4, #4]
     d00:	4b0d      	ldr	r3, [pc, #52]	; (d38 <cmd_flash+0x340>)
     d02:	4798      	blx	r3
     d04:	2800      	cmp	r0, #0
     d06:	d167      	bne.n	dd8 <cmd_flash+0x3e0>
     d08:	4d2b      	ldr	r5, [pc, #172]	; (db8 <cmd_flash+0x3c0>)
     d0a:	002b      	movs	r3, r5
     d0c:	3351      	adds	r3, #81	; 0x51
     d0e:	7818      	ldrb	r0, [r3, #0]
     d10:	2800      	cmp	r0, #0
     d12:	d15d      	bne.n	dd0 <cmd_flash+0x3d8>
     d14:	002b      	movs	r3, r5
     d16:	af05      	add	r7, sp, #20
     d18:	334e      	adds	r3, #78	; 0x4e
     d1a:	7818      	ldrb	r0, [r3, #0]
     d1c:	003a      	movs	r2, r7
     d1e:	2101      	movs	r1, #1
     d20:	4b26      	ldr	r3, [pc, #152]	; (dbc <cmd_flash+0x3c4>)
     d22:	4798      	blx	r3
     d24:	7833      	ldrb	r3, [r6, #0]
     d26:	707b      	strb	r3, [r7, #1]
     d28:	3550      	adds	r5, #80	; 0x50
     d2a:	7828      	ldrb	r0, [r5, #0]
     d2c:	003a      	movs	r2, r7
     d2e:	2102      	movs	r1, #2
     d30:	e050      	b.n	dd4 <cmd_flash+0x3dc>
     d32:	bf00      	nop
     d34:	00020663 	.word	0x00020663
     d38:	00006de9 	.word	0x00006de9
     d3c:	000801cc 	.word	0x000801cc
     d40:	00020669 	.word	0x00020669
     d44:	000079d9 	.word	0x000079d9
     d48:	0002067c 	.word	0x0002067c
     d4c:	00020681 	.word	0x00020681
     d50:	00002147 	.word	0x00002147
     d54:	00020695 	.word	0x00020695
     d58:	000206ab 	.word	0x000206ab
     d5c:	000206b1 	.word	0x000206b1
     d60:	000206c3 	.word	0x000206c3
     d64:	000206da 	.word	0x000206da
     d68:	000206e1 	.word	0x000206e1
     d6c:	000206f4 	.word	0x000206f4
     d70:	00020064 	.word	0x00020064
     d74:	00002049 	.word	0x00002049
     d78:	e000ed00 	.word	0xe000ed00
     d7c:	e000ed08 	.word	0xe000ed08
     d80:	e000ed04 	.word	0xe000ed04
     d84:	0002070c 	.word	0x0002070c
     d88:	0002071d 	.word	0x0002071d
     d8c:	4800022c 	.word	0x4800022c
     d90:	00020722 	.word	0x00020722
     d94:	00003595 	.word	0x00003595
     d98:	08000008 	.word	0x08000008
     d9c:	08000004 	.word	0x08000004
     da0:	0800000c 	.word	0x0800000c
     da4:	0002072e 	.word	0x0002072e
     da8:	0002074b 	.word	0x0002074b
     dac:	00020751 	.word	0x00020751
     db0:	0002076f 	.word	0x0002076f
     db4:	00020776 	.word	0x00020776
     db8:	000801f8 	.word	0x000801f8
     dbc:	00001d1d 	.word	0x00001d1d
     dc0:	0002077a 	.word	0x0002077a
     dc4:	00020789 	.word	0x00020789
     dc8:	00002129 	.word	0x00002129
     dcc:	0002078e 	.word	0x0002078e
     dd0:	0032      	movs	r2, r6
     dd2:	2101      	movs	r1, #1
     dd4:	4b5f      	ldr	r3, [pc, #380]	; (f54 <cmd_flash+0x55c>)
     dd6:	4798      	blx	r3
     dd8:	495f      	ldr	r1, [pc, #380]	; (f58 <cmd_flash+0x560>)
     dda:	6820      	ldr	r0, [r4, #0]
     ddc:	4b5f      	ldr	r3, [pc, #380]	; (f5c <cmd_flash+0x564>)
     dde:	4798      	blx	r3
     de0:	2800      	cmp	r0, #0
     de2:	d000      	beq.n	de6 <cmd_flash+0x3ee>
     de4:	e0b3      	b.n	f4e <cmd_flash+0x556>
     de6:	495e      	ldr	r1, [pc, #376]	; (f60 <cmd_flash+0x568>)
     de8:	6860      	ldr	r0, [r4, #4]
     dea:	4b5c      	ldr	r3, [pc, #368]	; (f5c <cmd_flash+0x564>)
     dec:	4798      	blx	r3
     dee:	bbb0      	cbnz	r0, e5e <cmd_flash+0x466>
     df0:	4b5c      	ldr	r3, [pc, #368]	; (f64 <cmd_flash+0x56c>)
     df2:	681b      	ldr	r3, [r3, #0]
     df4:	03db      	lsls	r3, r3, #15
     df6:	d502      	bpl.n	dfe <cmd_flash+0x406>
     df8:	485b      	ldr	r0, [pc, #364]	; (f68 <cmd_flash+0x570>)
     dfa:	f7ff fb3b 	bl	474 <DiagPrintf>
     dfe:	f3bf 8f4f 	dsb	sy
     e02:	f3bf 8f6f 	isb	sy
     e06:	4b59      	ldr	r3, [pc, #356]	; (f6c <cmd_flash+0x574>)
     e08:	4a59      	ldr	r2, [pc, #356]	; (f70 <cmd_flash+0x578>)
     e0a:	6959      	ldr	r1, [r3, #20]
     e0c:	400a      	ands	r2, r1
     e0e:	615a      	str	r2, [r3, #20]
     e10:	f240 2150 	movw	r1, #592	; 0x250
     e14:	2200      	movs	r2, #0
     e16:	505a      	str	r2, [r3, r1]
     e18:	f3bf 8f4f 	dsb	sy
     e1c:	f3bf 8f6f 	isb	sy
     e20:	4954      	ldr	r1, [pc, #336]	; (f74 <cmd_flash+0x57c>)
     e22:	67ca      	str	r2, [r1, #124]	; 0x7c
     e24:	f3bf 8f4f 	dsb	sy
     e28:	4a53      	ldr	r2, [pc, #332]	; (f78 <cmd_flash+0x580>)
     e2a:	6959      	ldr	r1, [r3, #20]
     e2c:	400a      	ands	r2, r1
     e2e:	615a      	str	r2, [r3, #20]
     e30:	f3bf 8f4f 	dsb	sy
     e34:	f643 76e0 	movw	r6, #16352	; 0x3fe0
     e38:	f240 2774 	movw	r7, #628	; 0x274
     e3c:	4a4f      	ldr	r2, [pc, #316]	; (f7c <cmd_flash+0x584>)
     e3e:	6fd1      	ldr	r1, [r2, #124]	; 0x7c
     e40:	010a      	lsls	r2, r1, #4
     e42:	04c9      	lsls	r1, r1, #19
     e44:	0c52      	lsrs	r2, r2, #17
     e46:	0d88      	lsrs	r0, r1, #22
     e48:	0001      	movs	r1, r0
     e4a:	0155      	lsls	r5, r2, #5
     e4c:	4035      	ands	r5, r6
     e4e:	07cc      	lsls	r4, r1, #31
     e50:	432c      	orrs	r4, r5
     e52:	51dc      	str	r4, [r3, r7]
     e54:	3901      	subs	r1, #1
     e56:	d2fa      	bcs.n	e4e <cmd_flash+0x456>
     e58:	3a01      	subs	r2, #1
     e5a:	d2f5      	bcs.n	e48 <cmd_flash+0x450>
     e5c:	e073      	b.n	f46 <cmd_flash+0x54e>
     e5e:	4948      	ldr	r1, [pc, #288]	; (f80 <cmd_flash+0x588>)
     e60:	6860      	ldr	r0, [r4, #4]
     e62:	4b3e      	ldr	r3, [pc, #248]	; (f5c <cmd_flash+0x564>)
     e64:	4798      	blx	r3
     e66:	bbe8      	cbnz	r0, ee4 <cmd_flash+0x4ec>
     e68:	4b3e      	ldr	r3, [pc, #248]	; (f64 <cmd_flash+0x56c>)
     e6a:	681b      	ldr	r3, [r3, #0]
     e6c:	03db      	lsls	r3, r3, #15
     e6e:	d502      	bpl.n	e76 <cmd_flash+0x47e>
     e70:	4844      	ldr	r0, [pc, #272]	; (f84 <cmd_flash+0x58c>)
     e72:	f7ff faff 	bl	474 <DiagPrintf>
     e76:	f3bf 8f4f 	dsb	sy
     e7a:	f3bf 8f6f 	isb	sy
     e7e:	2100      	movs	r1, #0
     e80:	f240 2250 	movw	r2, #592	; 0x250
     e84:	4b39      	ldr	r3, [pc, #228]	; (f6c <cmd_flash+0x574>)
     e86:	5099      	str	r1, [r3, r2]
     e88:	f3bf 8f4f 	dsb	sy
     e8c:	f3bf 8f6f 	isb	sy
     e90:	2080      	movs	r0, #128	; 0x80
     e92:	695a      	ldr	r2, [r3, #20]
     e94:	0280      	lsls	r0, r0, #10
     e96:	4302      	orrs	r2, r0
     e98:	615a      	str	r2, [r3, #20]
     e9a:	f3bf 8f4f 	dsb	sy
     e9e:	f3bf 8f6f 	isb	sy
     ea2:	4a34      	ldr	r2, [pc, #208]	; (f74 <cmd_flash+0x57c>)
     ea4:	67d1      	str	r1, [r2, #124]	; 0x7c
     ea6:	f3bf 8f4f 	dsb	sy
     eaa:	4a34      	ldr	r2, [pc, #208]	; (f7c <cmd_flash+0x584>)
     eac:	6fd2      	ldr	r2, [r2, #124]	; 0x7c
     eae:	0111      	lsls	r1, r2, #4
     eb0:	04d2      	lsls	r2, r2, #19
     eb2:	0d90      	lsrs	r0, r2, #22
     eb4:	f643 76e0 	movw	r6, #16352	; 0x3fe0
     eb8:	001a      	movs	r2, r3
     eba:	f240 2760 	movw	r7, #608	; 0x260
     ebe:	0c49      	lsrs	r1, r1, #17
     ec0:	0003      	movs	r3, r0
     ec2:	014d      	lsls	r5, r1, #5
     ec4:	4035      	ands	r5, r6
     ec6:	07dc      	lsls	r4, r3, #31
     ec8:	432c      	orrs	r4, r5
     eca:	51d4      	str	r4, [r2, r7]
     ecc:	3b01      	subs	r3, #1
     ece:	d2fa      	bcs.n	ec6 <cmd_flash+0x4ce>
     ed0:	3901      	subs	r1, #1
     ed2:	d2f5      	bcs.n	ec0 <cmd_flash+0x4c8>
     ed4:	f3bf 8f4f 	dsb	sy
     ed8:	2180      	movs	r1, #128	; 0x80
     eda:	6953      	ldr	r3, [r2, #20]
     edc:	0249      	lsls	r1, r1, #9
     ede:	430b      	orrs	r3, r1
     ee0:	6153      	str	r3, [r2, #20]
     ee2:	e030      	b.n	f46 <cmd_flash+0x54e>
     ee4:	4928      	ldr	r1, [pc, #160]	; (f88 <cmd_flash+0x590>)
     ee6:	6860      	ldr	r0, [r4, #4]
     ee8:	4b1c      	ldr	r3, [pc, #112]	; (f5c <cmd_flash+0x564>)
     eea:	4798      	blx	r3
     eec:	bb78      	cbnz	r0, f4e <cmd_flash+0x556>
     eee:	4b1d      	ldr	r3, [pc, #116]	; (f64 <cmd_flash+0x56c>)
     ef0:	681b      	ldr	r3, [r3, #0]
     ef2:	03db      	lsls	r3, r3, #15
     ef4:	d502      	bpl.n	efc <cmd_flash+0x504>
     ef6:	4825      	ldr	r0, [pc, #148]	; (f8c <cmd_flash+0x594>)
     ef8:	f7ff fabc 	bl	474 <DiagPrintf>
     efc:	f3bf 8f4f 	dsb	sy
     f00:	f3bf 8f6f 	isb	sy
     f04:	2300      	movs	r3, #0
     f06:	f240 2250 	movw	r2, #592	; 0x250
     f0a:	4818      	ldr	r0, [pc, #96]	; (f6c <cmd_flash+0x574>)
     f0c:	5083      	str	r3, [r0, r2]
     f0e:	f3bf 8f4f 	dsb	sy
     f12:	f3bf 8f6f 	isb	sy
     f16:	4a17      	ldr	r2, [pc, #92]	; (f74 <cmd_flash+0x57c>)
     f18:	67d3      	str	r3, [r2, #124]	; 0x7c
     f1a:	f3bf 8f4f 	dsb	sy
     f1e:	f643 76e0 	movw	r6, #16352	; 0x3fe0
     f22:	f240 2760 	movw	r7, #608	; 0x260
     f26:	4b15      	ldr	r3, [pc, #84]	; (f7c <cmd_flash+0x584>)
     f28:	6fdb      	ldr	r3, [r3, #124]	; 0x7c
     f2a:	011a      	lsls	r2, r3, #4
     f2c:	04db      	lsls	r3, r3, #19
     f2e:	0c52      	lsrs	r2, r2, #17
     f30:	0d99      	lsrs	r1, r3, #22
     f32:	000b      	movs	r3, r1
     f34:	0155      	lsls	r5, r2, #5
     f36:	4035      	ands	r5, r6
     f38:	07dc      	lsls	r4, r3, #31
     f3a:	432c      	orrs	r4, r5
     f3c:	51c4      	str	r4, [r0, r7]
     f3e:	3b01      	subs	r3, #1
     f40:	d2fa      	bcs.n	f38 <cmd_flash+0x540>
     f42:	3a01      	subs	r2, #1
     f44:	d2f5      	bcs.n	f32 <cmd_flash+0x53a>
     f46:	f3bf 8f4f 	dsb	sy
     f4a:	f3bf 8f6f 	isb	sy
     f4e:	2000      	movs	r0, #0
     f50:	b007      	add	sp, #28
     f52:	bdf0      	pop	{r4, r5, r6, r7, pc}
     f54:	00002129 	.word	0x00002129
     f58:	00020793 	.word	0x00020793
     f5c:	00006de9 	.word	0x00006de9
     f60:	00020799 	.word	0x00020799
     f64:	000801cc 	.word	0x000801cc
     f68:	000207a1 	.word	0x000207a1
     f6c:	e000ed00 	.word	0xe000ed00
     f70:	fffdffff 	.word	0xfffdffff
     f74:	e000ed08 	.word	0xe000ed08
     f78:	fffeffff 	.word	0xfffeffff
     f7c:	e000ed04 	.word	0xe000ed04
     f80:	000207b1 	.word	0x000207b1
     f84:	000207b8 	.word	0x000207b8
     f88:	000207c7 	.word	0x000207c7
     f8c:	000207cd 	.word	0x000207cd

00000f90 <cmd_efuse>:
     f90:	b5f0      	push	{r4, r5, r6, r7, lr}
     f92:	000f      	movs	r7, r1
     f94:	4ca7      	ldr	r4, [pc, #668]	; (1234 <cmd_efuse+0x2a4>)
     f96:	49a8      	ldr	r1, [pc, #672]	; (1238 <cmd_efuse+0x2a8>)
     f98:	44a5      	add	sp, r4
     f9a:	6838      	ldr	r0, [r7, #0]
     f9c:	4ba7      	ldr	r3, [pc, #668]	; (123c <cmd_efuse+0x2ac>)
     f9e:	4798      	blx	r3
     fa0:	0004      	movs	r4, r0
     fa2:	2800      	cmp	r0, #0
     fa4:	d143      	bne.n	102e <cmd_efuse+0x9e>
     fa6:	0001      	movs	r1, r0
     fa8:	2210      	movs	r2, #16
     faa:	4da5      	ldr	r5, [pc, #660]	; (1240 <cmd_efuse+0x2b0>)
     fac:	6878      	ldr	r0, [r7, #4]
     fae:	47a8      	blx	r5
     fb0:	0021      	movs	r1, r4
     fb2:	9011      	str	r0, [sp, #68]	; 0x44
     fb4:	2210      	movs	r2, #16
     fb6:	68b8      	ldr	r0, [r7, #8]
     fb8:	47a8      	blx	r5
     fba:	68fb      	ldr	r3, [r7, #12]
     fbc:	900f      	str	r0, [sp, #60]	; 0x3c
     fbe:	9310      	str	r3, [sp, #64]	; 0x40
     fc0:	0018      	movs	r0, r3
     fc2:	4ba0      	ldr	r3, [pc, #640]	; (1244 <cmd_efuse+0x2b4>)
     fc4:	4798      	blx	r3
     fc6:	2380      	movs	r3, #128	; 0x80
     fc8:	0001      	movs	r1, r0
     fca:	4e9f      	ldr	r6, [pc, #636]	; (1248 <cmd_efuse+0x2b8>)
     fcc:	025b      	lsls	r3, r3, #9
     fce:	07c2      	lsls	r2, r0, #31
     fd0:	d504      	bpl.n	fdc <cmd_efuse+0x4c>
     fd2:	6832      	ldr	r2, [r6, #0]
     fd4:	421a      	tst	r2, r3
     fd6:	d100      	bne.n	fda <cmd_efuse+0x4a>
     fd8:	e127      	b.n	122a <cmd_efuse+0x29a>
     fda:	e0df      	b.n	119c <cmd_efuse+0x20c>
     fdc:	9a0f      	ldr	r2, [sp, #60]	; 0x3c
     fde:	0844      	lsrs	r4, r0, #1
     fe0:	0025      	movs	r5, r4
     fe2:	42a2      	cmp	r2, r4
     fe4:	d009      	beq.n	ffa <cmd_efuse+0x6a>
     fe6:	6832      	ldr	r2, [r6, #0]
     fe8:	421a      	tst	r2, r3
     fea:	d002      	beq.n	ff2 <cmd_efuse+0x62>
     fec:	4897      	ldr	r0, [pc, #604]	; (124c <cmd_efuse+0x2bc>)
     fee:	f7ff fa41 	bl	474 <DiagPrintf>
     ff2:	9d0f      	ldr	r5, [sp, #60]	; 0x3c
     ff4:	42a5      	cmp	r5, r4
     ff6:	d900      	bls.n	ffa <cmd_efuse+0x6a>
     ff8:	0025      	movs	r5, r4
     ffa:	6833      	ldr	r3, [r6, #0]
     ffc:	03db      	lsls	r3, r3, #15
     ffe:	d504      	bpl.n	100a <cmd_efuse+0x7a>
    1000:	0062      	lsls	r2, r4, #1
    1002:	0029      	movs	r1, r5
    1004:	4892      	ldr	r0, [pc, #584]	; (1250 <cmd_efuse+0x2c0>)
    1006:	f7ff fa35 	bl	474 <DiagPrintf>
    100a:	2600      	movs	r6, #0
    100c:	9c10      	ldr	r4, [sp, #64]	; 0x40
    100e:	42ae      	cmp	r6, r5
    1010:	d008      	beq.n	1024 <cmd_efuse+0x94>
    1012:	7861      	ldrb	r1, [r4, #1]
    1014:	7820      	ldrb	r0, [r4, #0]
    1016:	4b8f      	ldr	r3, [pc, #572]	; (1254 <cmd_efuse+0x2c4>)
    1018:	4798      	blx	r3
    101a:	ab12      	add	r3, sp, #72	; 0x48
    101c:	54f0      	strb	r0, [r6, r3]
    101e:	3402      	adds	r4, #2
    1020:	3601      	adds	r6, #1
    1022:	e7f4      	b.n	100e <cmd_efuse+0x7e>
    1024:	aa12      	add	r2, sp, #72	; 0x48
    1026:	0031      	movs	r1, r6
    1028:	9811      	ldr	r0, [sp, #68]	; 0x44
    102a:	4b8b      	ldr	r3, [pc, #556]	; (1258 <cmd_efuse+0x2c8>)
    102c:	4798      	blx	r3
    102e:	498b      	ldr	r1, [pc, #556]	; (125c <cmd_efuse+0x2cc>)
    1030:	6838      	ldr	r0, [r7, #0]
    1032:	4b82      	ldr	r3, [pc, #520]	; (123c <cmd_efuse+0x2ac>)
    1034:	4798      	blx	r3
    1036:	b130      	cbz	r0, 1046 <cmd_efuse+0xb6>
    1038:	4989      	ldr	r1, [pc, #548]	; (1260 <cmd_efuse+0x2d0>)
    103a:	6838      	ldr	r0, [r7, #0]
    103c:	4b7f      	ldr	r3, [pc, #508]	; (123c <cmd_efuse+0x2ac>)
    103e:	4798      	blx	r3
    1040:	2800      	cmp	r0, #0
    1042:	d042      	beq.n	10ca <cmd_efuse+0x13a>
    1044:	e089      	b.n	115a <cmd_efuse+0x1ca>
    1046:	4e80      	ldr	r6, [pc, #512]	; (1248 <cmd_efuse+0x2b8>)
    1048:	6833      	ldr	r3, [r6, #0]
    104a:	03db      	lsls	r3, r3, #15
    104c:	d502      	bpl.n	1054 <cmd_efuse+0xc4>
    104e:	4885      	ldr	r0, [pc, #532]	; (1264 <cmd_efuse+0x2d4>)
    1050:	f7ff fa10 	bl	474 <DiagPrintf>
    1054:	a812      	add	r0, sp, #72	; 0x48
    1056:	4b84      	ldr	r3, [pc, #528]	; (1268 <cmd_efuse+0x2d8>)
    1058:	4798      	blx	r3
    105a:	b2c0      	uxtb	r0, r0
    105c:	b928      	cbnz	r0, 106a <cmd_efuse+0xda>
    105e:	6833      	ldr	r3, [r6, #0]
    1060:	03db      	lsls	r3, r3, #15
    1062:	d502      	bpl.n	106a <cmd_efuse+0xda>
    1064:	4881      	ldr	r0, [pc, #516]	; (126c <cmd_efuse+0x2dc>)
    1066:	f7ff fa05 	bl	474 <DiagPrintf>
    106a:	2500      	movs	r5, #0
    106c:	ac12      	add	r4, sp, #72	; 0x48
    106e:	2280      	movs	r2, #128	; 0x80
    1070:	6833      	ldr	r3, [r6, #0]
    1072:	0252      	lsls	r2, r2, #9
    1074:	4213      	tst	r3, r2
    1076:	d021      	beq.n	10bc <cmd_efuse+0x12c>
    1078:	7be1      	ldrb	r1, [r4, #15]
    107a:	7863      	ldrb	r3, [r4, #1]
    107c:	7822      	ldrb	r2, [r4, #0]
    107e:	910d      	str	r1, [sp, #52]	; 0x34
    1080:	7ba1      	ldrb	r1, [r4, #14]
    1082:	910c      	str	r1, [sp, #48]	; 0x30
    1084:	7b61      	ldrb	r1, [r4, #13]
    1086:	910b      	str	r1, [sp, #44]	; 0x2c
    1088:	7b21      	ldrb	r1, [r4, #12]
    108a:	910a      	str	r1, [sp, #40]	; 0x28
    108c:	7ae1      	ldrb	r1, [r4, #11]
    108e:	9109      	str	r1, [sp, #36]	; 0x24
    1090:	7aa1      	ldrb	r1, [r4, #10]
    1092:	9108      	str	r1, [sp, #32]
    1094:	7a61      	ldrb	r1, [r4, #9]
    1096:	9107      	str	r1, [sp, #28]
    1098:	7a21      	ldrb	r1, [r4, #8]
    109a:	9106      	str	r1, [sp, #24]
    109c:	79e1      	ldrb	r1, [r4, #7]
    109e:	9105      	str	r1, [sp, #20]
    10a0:	79a1      	ldrb	r1, [r4, #6]
    10a2:	9104      	str	r1, [sp, #16]
    10a4:	7961      	ldrb	r1, [r4, #5]
    10a6:	9103      	str	r1, [sp, #12]
    10a8:	7921      	ldrb	r1, [r4, #4]
    10aa:	9102      	str	r1, [sp, #8]
    10ac:	78e1      	ldrb	r1, [r4, #3]
    10ae:	9101      	str	r1, [sp, #4]
    10b0:	78a1      	ldrb	r1, [r4, #2]
    10b2:	486f      	ldr	r0, [pc, #444]	; (1270 <cmd_efuse+0x2e0>)
    10b4:	9100      	str	r1, [sp, #0]
    10b6:	0029      	movs	r1, r5
    10b8:	f7ff f9dc 	bl	474 <DiagPrintf>
    10bc:	f240 4300 	movw	r3, #1024	; 0x400
    10c0:	3510      	adds	r5, #16
    10c2:	3410      	adds	r4, #16
    10c4:	429d      	cmp	r5, r3
    10c6:	d1d2      	bne.n	106e <cmd_efuse+0xde>
    10c8:	e7b6      	b.n	1038 <cmd_efuse+0xa8>
    10ca:	4e5f      	ldr	r6, [pc, #380]	; (1248 <cmd_efuse+0x2b8>)
    10cc:	6833      	ldr	r3, [r6, #0]
    10ce:	03db      	lsls	r3, r3, #15
    10d0:	d502      	bpl.n	10d8 <cmd_efuse+0x148>
    10d2:	4868      	ldr	r0, [pc, #416]	; (1274 <cmd_efuse+0x2e4>)
    10d4:	f7ff f9ce 	bl	474 <DiagPrintf>
    10d8:	2400      	movs	r4, #0
    10da:	0023      	movs	r3, r4
    10dc:	3b51      	subs	r3, #81	; 0x51
    10de:	3bff      	subs	r3, #255	; 0xff
    10e0:	aa12      	add	r2, sp, #72	; 0x48
    10e2:	2b2f      	cmp	r3, #47	; 0x2f
    10e4:	d941      	bls.n	116a <cmd_efuse+0x1da>
    10e6:	1912      	adds	r2, r2, r4
    10e8:	2307      	movs	r3, #7
    10ea:	0021      	movs	r1, r4
    10ec:	2000      	movs	r0, #0
    10ee:	4d62      	ldr	r5, [pc, #392]	; (1278 <cmd_efuse+0x2e8>)
    10f0:	47a8      	blx	r5
    10f2:	f240 2300 	movw	r3, #512	; 0x200
    10f6:	3401      	adds	r4, #1
    10f8:	429c      	cmp	r4, r3
    10fa:	d1ee      	bne.n	10da <cmd_efuse+0x14a>
    10fc:	2500      	movs	r5, #0
    10fe:	ac12      	add	r4, sp, #72	; 0x48
    1100:	2280      	movs	r2, #128	; 0x80
    1102:	6833      	ldr	r3, [r6, #0]
    1104:	0252      	lsls	r2, r2, #9
    1106:	4213      	tst	r3, r2
    1108:	d021      	beq.n	114e <cmd_efuse+0x1be>
    110a:	7be1      	ldrb	r1, [r4, #15]
    110c:	7863      	ldrb	r3, [r4, #1]
    110e:	7822      	ldrb	r2, [r4, #0]
    1110:	910d      	str	r1, [sp, #52]	; 0x34
    1112:	7ba1      	ldrb	r1, [r4, #14]
    1114:	910c      	str	r1, [sp, #48]	; 0x30
    1116:	7b61      	ldrb	r1, [r4, #13]
    1118:	910b      	str	r1, [sp, #44]	; 0x2c
    111a:	7b21      	ldrb	r1, [r4, #12]
    111c:	910a      	str	r1, [sp, #40]	; 0x28
    111e:	7ae1      	ldrb	r1, [r4, #11]
    1120:	9109      	str	r1, [sp, #36]	; 0x24
    1122:	7aa1      	ldrb	r1, [r4, #10]
    1124:	9108      	str	r1, [sp, #32]
    1126:	7a61      	ldrb	r1, [r4, #9]
    1128:	9107      	str	r1, [sp, #28]
    112a:	7a21      	ldrb	r1, [r4, #8]
    112c:	9106      	str	r1, [sp, #24]
    112e:	79e1      	ldrb	r1, [r4, #7]
    1130:	9105      	str	r1, [sp, #20]
    1132:	79a1      	ldrb	r1, [r4, #6]
    1134:	9104      	str	r1, [sp, #16]
    1136:	7961      	ldrb	r1, [r4, #5]
    1138:	9103      	str	r1, [sp, #12]
    113a:	7921      	ldrb	r1, [r4, #4]
    113c:	9102      	str	r1, [sp, #8]
    113e:	78e1      	ldrb	r1, [r4, #3]
    1140:	9101      	str	r1, [sp, #4]
    1142:	78a1      	ldrb	r1, [r4, #2]
    1144:	484d      	ldr	r0, [pc, #308]	; (127c <cmd_efuse+0x2ec>)
    1146:	9100      	str	r1, [sp, #0]
    1148:	0029      	movs	r1, r5
    114a:	f7ff f993 	bl	474 <DiagPrintf>
    114e:	f240 2300 	movw	r3, #512	; 0x200
    1152:	3510      	adds	r5, #16
    1154:	3410      	adds	r4, #16
    1156:	429d      	cmp	r5, r3
    1158:	d1d2      	bne.n	1100 <cmd_efuse+0x170>
    115a:	4949      	ldr	r1, [pc, #292]	; (1280 <cmd_efuse+0x2f0>)
    115c:	6838      	ldr	r0, [r7, #0]
    115e:	4b37      	ldr	r3, [pc, #220]	; (123c <cmd_efuse+0x2ac>)
    1160:	4798      	blx	r3
    1162:	0004      	movs	r4, r0
    1164:	2800      	cmp	r0, #0
    1166:	d160      	bne.n	122a <cmd_efuse+0x29a>
    1168:	e002      	b.n	1170 <cmd_efuse+0x1e0>
    116a:	23ff      	movs	r3, #255	; 0xff
    116c:	5513      	strb	r3, [r2, r4]
    116e:	e7c0      	b.n	10f2 <cmd_efuse+0x162>
    1170:	0001      	movs	r1, r0
    1172:	4d33      	ldr	r5, [pc, #204]	; (1240 <cmd_efuse+0x2b0>)
    1174:	2210      	movs	r2, #16
    1176:	6878      	ldr	r0, [r7, #4]
    1178:	47a8      	blx	r5
    117a:	0021      	movs	r1, r4
    117c:	900f      	str	r0, [sp, #60]	; 0x3c
    117e:	2210      	movs	r2, #16
    1180:	68b8      	ldr	r0, [r7, #8]
    1182:	47a8      	blx	r5
    1184:	68fd      	ldr	r5, [r7, #12]
    1186:	9010      	str	r0, [sp, #64]	; 0x40
    1188:	4b2e      	ldr	r3, [pc, #184]	; (1244 <cmd_efuse+0x2b4>)
    118a:	0028      	movs	r0, r5
    118c:	4798      	blx	r3
    118e:	0001      	movs	r1, r0
    1190:	07c3      	lsls	r3, r0, #31
    1192:	d507      	bpl.n	11a4 <cmd_efuse+0x214>
    1194:	4b2c      	ldr	r3, [pc, #176]	; (1248 <cmd_efuse+0x2b8>)
    1196:	681b      	ldr	r3, [r3, #0]
    1198:	03db      	lsls	r3, r3, #15
    119a:	d546      	bpl.n	122a <cmd_efuse+0x29a>
    119c:	4839      	ldr	r0, [pc, #228]	; (1284 <cmd_efuse+0x2f4>)
    119e:	f7ff f969 	bl	474 <DiagPrintf>
    11a2:	e042      	b.n	122a <cmd_efuse+0x29a>
    11a4:	9b10      	ldr	r3, [sp, #64]	; 0x40
    11a6:	0844      	lsrs	r4, r0, #1
    11a8:	0026      	movs	r6, r4
    11aa:	42a3      	cmp	r3, r4
    11ac:	d00a      	beq.n	11c4 <cmd_efuse+0x234>
    11ae:	4b26      	ldr	r3, [pc, #152]	; (1248 <cmd_efuse+0x2b8>)
    11b0:	681b      	ldr	r3, [r3, #0]
    11b2:	03db      	lsls	r3, r3, #15
    11b4:	d502      	bpl.n	11bc <cmd_efuse+0x22c>
    11b6:	4825      	ldr	r0, [pc, #148]	; (124c <cmd_efuse+0x2bc>)
    11b8:	f7ff f95c 	bl	474 <DiagPrintf>
    11bc:	9e10      	ldr	r6, [sp, #64]	; 0x40
    11be:	42a6      	cmp	r6, r4
    11c0:	d900      	bls.n	11c4 <cmd_efuse+0x234>
    11c2:	0026      	movs	r6, r4
    11c4:	2700      	movs	r7, #0
    11c6:	42b7      	cmp	r7, r6
    11c8:	d008      	beq.n	11dc <cmd_efuse+0x24c>
    11ca:	7869      	ldrb	r1, [r5, #1]
    11cc:	7828      	ldrb	r0, [r5, #0]
    11ce:	4b21      	ldr	r3, [pc, #132]	; (1254 <cmd_efuse+0x2c4>)
    11d0:	4798      	blx	r3
    11d2:	ab12      	add	r3, sp, #72	; 0x48
    11d4:	54f8      	strb	r0, [r7, r3]
    11d6:	3502      	adds	r5, #2
    11d8:	3701      	adds	r7, #1
    11da:	e7f4      	b.n	11c6 <cmd_efuse+0x236>
    11dc:	4d1a      	ldr	r5, [pc, #104]	; (1248 <cmd_efuse+0x2b8>)
    11de:	682b      	ldr	r3, [r5, #0]
    11e0:	03db      	lsls	r3, r3, #15
    11e2:	d504      	bpl.n	11ee <cmd_efuse+0x25e>
    11e4:	0062      	lsls	r2, r4, #1
    11e6:	0031      	movs	r1, r6
    11e8:	4827      	ldr	r0, [pc, #156]	; (1288 <cmd_efuse+0x2f8>)
    11ea:	f7ff f943 	bl	474 <DiagPrintf>
    11ee:	2780      	movs	r7, #128	; 0x80
    11f0:	9b0f      	ldr	r3, [sp, #60]	; 0x3c
    11f2:	18f3      	adds	r3, r6, r3
    11f4:	9310      	str	r3, [sp, #64]	; 0x40
    11f6:	9c0f      	ldr	r4, [sp, #60]	; 0x3c
    11f8:	027f      	lsls	r7, r7, #9
    11fa:	9b10      	ldr	r3, [sp, #64]	; 0x40
    11fc:	42a3      	cmp	r3, r4
    11fe:	d014      	beq.n	122a <cmd_efuse+0x29a>
    1200:	682b      	ldr	r3, [r5, #0]
    1202:	ae12      	add	r6, sp, #72	; 0x48
    1204:	423b      	tst	r3, r7
    1206:	d006      	beq.n	1216 <cmd_efuse+0x286>
    1208:	9b0f      	ldr	r3, [sp, #60]	; 0x3c
    120a:	1af3      	subs	r3, r6, r3
    120c:	5d1a      	ldrb	r2, [r3, r4]
    120e:	0021      	movs	r1, r4
    1210:	481e      	ldr	r0, [pc, #120]	; (128c <cmd_efuse+0x2fc>)
    1212:	f7ff f92f 	bl	474 <DiagPrintf>
    1216:	9b0f      	ldr	r3, [sp, #60]	; 0x3c
    1218:	1af6      	subs	r6, r6, r3
    121a:	5d32      	ldrb	r2, [r6, r4]
    121c:	0021      	movs	r1, r4
    121e:	2307      	movs	r3, #7
    1220:	2000      	movs	r0, #0
    1222:	4e1b      	ldr	r6, [pc, #108]	; (1290 <cmd_efuse+0x300>)
    1224:	47b0      	blx	r6
    1226:	3401      	adds	r4, #1
    1228:	e7e7      	b.n	11fa <cmd_efuse+0x26a>
    122a:	2000      	movs	r0, #0
    122c:	f240 434c 	movw	r3, #1100	; 0x44c
    1230:	449d      	add	sp, r3
    1232:	bdf0      	pop	{r4, r5, r6, r7, pc}
    1234:	fffffbb4 	.word	0xfffffbb4
    1238:	000207db 	.word	0x000207db
    123c:	00006de9 	.word	0x00006de9
    1240:	000079d9 	.word	0x000079d9
    1244:	00006ec5 	.word	0x00006ec5
    1248:	000801cc 	.word	0x000801cc
    124c:	00020802 	.word	0x00020802
    1250:	00020846 	.word	0x00020846
    1254:	0000645d 	.word	0x0000645d
    1258:	00001a71 	.word	0x00001a71
    125c:	0002086e 	.word	0x0002086e
    1260:	00020873 	.word	0x00020873
    1264:	00020878 	.word	0x00020878
    1268:	00001965 	.word	0x00001965
    126c:	00020885 	.word	0x00020885
    1270:	000208a2 	.word	0x000208a2
    1274:	00020905 	.word	0x00020905
    1278:	0000159d 	.word	0x0000159d
    127c:	00020911 	.word	0x00020911
    1280:	00020900 	.word	0x00020900
    1284:	000207e0 	.word	0x000207e0
    1288:	00020970 	.word	0x00020970
    128c:	00020998 	.word	0x00020998
    1290:	00001661 	.word	0x00001661

00001294 <cmd_reboot>:
    1294:	000b      	movs	r3, r1
    1296:	b510      	push	{r4, lr}
    1298:	6818      	ldr	r0, [r3, #0]
    129a:	490c      	ldr	r1, [pc, #48]	; (12cc <cmd_reboot+0x38>)
    129c:	4b0c      	ldr	r3, [pc, #48]	; (12d0 <cmd_reboot+0x3c>)
    129e:	4798      	blx	r3
    12a0:	b918      	cbnz	r0, 12aa <cmd_reboot+0x16>
    12a2:	f240 2100 	movw	r1, #512	; 0x200
    12a6:	4b0b      	ldr	r3, [pc, #44]	; (12d4 <cmd_reboot+0x40>)
    12a8:	4798      	blx	r3
    12aa:	4b0b      	ldr	r3, [pc, #44]	; (12d8 <cmd_reboot+0x44>)
    12ac:	681b      	ldr	r3, [r3, #0]
    12ae:	03db      	lsls	r3, r3, #15
    12b0:	d502      	bpl.n	12b8 <cmd_reboot+0x24>
    12b2:	480a      	ldr	r0, [pc, #40]	; (12dc <cmd_reboot+0x48>)
    12b4:	f7ff f8de 	bl	474 <DiagPrintf>
    12b8:	f3bf 8f4f 	dsb	sy
    12bc:	4a08      	ldr	r2, [pc, #32]	; (12e0 <cmd_reboot+0x4c>)
    12be:	4b09      	ldr	r3, [pc, #36]	; (12e4 <cmd_reboot+0x50>)
    12c0:	60da      	str	r2, [r3, #12]
    12c2:	f3bf 8f4f 	dsb	sy
    12c6:	46c0      	nop			; (mov r8, r8)
    12c8:	e7fd      	b.n	12c6 <cmd_reboot+0x32>
    12ca:	bf00      	nop
    12cc:	000209a6 	.word	0x000209a6
    12d0:	00006de9 	.word	0x00006de9
    12d4:	00001455 	.word	0x00001455
    12d8:	000801cc 	.word	0x000801cc
    12dc:	000209af 	.word	0x000209af
    12e0:	05fa0004 	.word	0x05fa0004
    12e4:	e000ed00 	.word	0xe000ed00

000012e8 <cmd_rom_table>:
    12e8:	4b01      	ldr	r3, [pc, #4]	; (12f0 <cmd_rom_table+0x8>)
    12ea:	6003      	str	r3, [r0, #0]
    12ec:	2006      	movs	r0, #6
    12ee:	4770      	bx	lr
    12f0:	00020004 	.word	0x00020004

000012f4 <Rand>:
    12f4:	4b1a      	ldr	r3, [pc, #104]	; (1360 <Rand+0x6c>)
    12f6:	681a      	ldr	r2, [r3, #0]
    12f8:	b570      	push	{r4, r5, r6, lr}
    12fa:	b962      	cbnz	r2, 1316 <Rand+0x22>
    12fc:	2201      	movs	r2, #1
    12fe:	f24c 06e0 	movw	r6, #49376	; 0xc0e0
    1302:	601a      	str	r2, [r3, #0]
    1304:	4817      	ldr	r0, [pc, #92]	; (1364 <Rand+0x70>)
    1306:	4a18      	ldr	r2, [pc, #96]	; (1368 <Rand+0x74>)
    1308:	4c18      	ldr	r4, [pc, #96]	; (136c <Rand+0x78>)
    130a:	4d19      	ldr	r5, [pc, #100]	; (1370 <Rand+0x7c>)
    130c:	605d      	str	r5, [r3, #4]
    130e:	609e      	str	r6, [r3, #8]
    1310:	60dc      	str	r4, [r3, #12]
    1312:	611a      	str	r2, [r3, #16]
    1314:	bd70      	pop	{r4, r5, r6, pc}
    1316:	685a      	ldr	r2, [r3, #4]
    1318:	0195      	lsls	r5, r2, #6
    131a:	4055      	eors	r5, r2
    131c:	0b69      	lsrs	r1, r5, #13
    131e:	0495      	lsls	r5, r2, #18
    1320:	0ced      	lsrs	r5, r5, #19
    1322:	04ed      	lsls	r5, r5, #19
    1324:	404d      	eors	r5, r1
    1326:	211f      	movs	r1, #31
    1328:	689a      	ldr	r2, [r3, #8]
    132a:	0096      	lsls	r6, r2, #2
    132c:	4072      	eors	r2, r6
    132e:	0ed2      	lsrs	r2, r2, #27
    1330:	438e      	bics	r6, r1
    1332:	4056      	eors	r6, r2
    1334:	68da      	ldr	r2, [r3, #12]
    1336:	0354      	lsls	r4, r2, #13
    1338:	4054      	eors	r4, r2
    133a:	0d61      	lsrs	r1, r4, #21
    133c:	01d4      	lsls	r4, r2, #7
    133e:	0ae4      	lsrs	r4, r4, #11
    1340:	02e4      	lsls	r4, r4, #11
    1342:	404c      	eors	r4, r1
    1344:	6919      	ldr	r1, [r3, #16]
    1346:	00ca      	lsls	r2, r1, #3
    1348:	404a      	eors	r2, r1
    134a:	0b10      	lsrs	r0, r2, #12
    134c:	034a      	lsls	r2, r1, #13
    134e:	0d12      	lsrs	r2, r2, #20
    1350:	0512      	lsls	r2, r2, #20
    1352:	4042      	eors	r2, r0
    1354:	0028      	movs	r0, r5
    1356:	4070      	eors	r0, r6
    1358:	4060      	eors	r0, r4
    135a:	4050      	eors	r0, r2
    135c:	e7d6      	b.n	130c <Rand+0x18>
    135e:	bf00      	nop
    1360:	000801dc 	.word	0x000801dc
    1364:	c6f8d8aa 	.word	0xc6f8d8aa
    1368:	0600001b 	.word	0x0600001b
    136c:	00181830 	.word	0x00181830
    1370:	c0e00061 	.word	0xc0e00061

00001374 <Rand_Arc4>:
    1374:	b510      	push	{r4, lr}
    1376:	4b08      	ldr	r3, [pc, #32]	; (1398 <Rand_Arc4+0x24>)
    1378:	4798      	blx	r3
    137a:	4c08      	ldr	r4, [pc, #32]	; (139c <Rand_Arc4+0x28>)
    137c:	6962      	ldr	r2, [r4, #20]
    137e:	4b08      	ldr	r3, [pc, #32]	; (13a0 <Rand_Arc4+0x2c>)
    1380:	01d1      	lsls	r1, r2, #7
    1382:	4019      	ands	r1, r3
    1384:	4b07      	ldr	r3, [pc, #28]	; (13a4 <Rand_Arc4+0x30>)
    1386:	0a12      	lsrs	r2, r2, #8
    1388:	4013      	ands	r3, r2
    138a:	404b      	eors	r3, r1
    138c:	0342      	lsls	r2, r0, #13
    138e:	4053      	eors	r3, r2
    1390:	0a40      	lsrs	r0, r0, #9
    1392:	4058      	eors	r0, r3
    1394:	6160      	str	r0, [r4, #20]
    1396:	bd10      	pop	{r4, pc}
    1398:	00003885 	.word	0x00003885
    139c:	000801dc 	.word	0x000801dc
    13a0:	3f807f80 	.word	0x3f807f80
    13a4:	000f80ff 	.word	0x000f80ff

000013a8 <RandBytes_Get>:
    13a8:	b5f0      	push	{r4, r5, r6, r7, lr}
    13aa:	46c6      	mov	lr, r8
    13ac:	b500      	push	{lr}
    13ae:	088e      	lsrs	r6, r1, #2
    13b0:	b082      	sub	sp, #8
    13b2:	4680      	mov	r8, r0
    13b4:	000f      	movs	r7, r1
    13b6:	b14e      	cbz	r6, 13cc <RandBytes_Get+0x24>
    13b8:	0005      	movs	r5, r0
    13ba:	2400      	movs	r4, #0
    13bc:	f7ff ffda 	bl	1374 <Rand_Arc4>
    13c0:	3401      	adds	r4, #1
    13c2:	c501      	stmia	r5!, {r0}
    13c4:	42a6      	cmp	r6, r4
    13c6:	d1f9      	bne.n	13bc <RandBytes_Get+0x14>
    13c8:	00b3      	lsls	r3, r6, #2
    13ca:	1aff      	subs	r7, r7, r3
    13cc:	b147      	cbz	r7, 13e0 <RandBytes_Get+0x38>
    13ce:	f7ff ffd1 	bl	1374 <Rand_Arc4>
    13d2:	9001      	str	r0, [sp, #4]
    13d4:	00b0      	lsls	r0, r6, #2
    13d6:	4440      	add	r0, r8
    13d8:	003a      	movs	r2, r7
    13da:	a901      	add	r1, sp, #4
    13dc:	4b03      	ldr	r3, [pc, #12]	; (13ec <RandBytes_Get+0x44>)
    13de:	4798      	blx	r3
    13e0:	2000      	movs	r0, #0
    13e2:	b002      	add	sp, #8
    13e4:	bc04      	pop	{r2}
    13e6:	4690      	mov	r8, r2
    13e8:	bdf0      	pop	{r4, r5, r6, r7, pc}
    13ea:	bf00      	nop
    13ec:	00006591 	.word	0x00006591

000013f0 <io_assert_failed>:
    13f0:	4b05      	ldr	r3, [pc, #20]	; (1408 <io_assert_failed+0x18>)
    13f2:	681b      	ldr	r3, [r3, #0]
    13f4:	b510      	push	{r4, lr}
    13f6:	000a      	movs	r2, r1
    13f8:	039b      	lsls	r3, r3, #14
    13fa:	d503      	bpl.n	1404 <io_assert_failed+0x14>
    13fc:	0001      	movs	r1, r0
    13fe:	4803      	ldr	r0, [pc, #12]	; (140c <io_assert_failed+0x1c>)
    1400:	f7ff f838 	bl	474 <DiagPrintf>
    1404:	e7fe      	b.n	1404 <io_assert_failed+0x14>
    1406:	bf00      	nop
    1408:	000801cc 	.word	0x000801cc
    140c:	00020bcc 	.word	0x00020bcc

00001410 <BKUP_Write>:
    1410:	b570      	push	{r4, r5, r6, lr}
    1412:	0004      	movs	r4, r0
    1414:	000d      	movs	r5, r1
    1416:	2807      	cmp	r0, #7
    1418:	d903      	bls.n	1422 <BKUP_Write+0x12>
    141a:	211f      	movs	r1, #31
    141c:	4803      	ldr	r0, [pc, #12]	; (142c <BKUP_Write+0x1c>)
    141e:	f7ff ffe7 	bl	13f0 <io_assert_failed>
    1422:	4b03      	ldr	r3, [pc, #12]	; (1430 <BKUP_Write+0x20>)
    1424:	00a4      	lsls	r4, r4, #2
    1426:	50e5      	str	r5, [r4, r3]
    1428:	bd70      	pop	{r4, r5, r6, pc}
    142a:	bf00      	nop
    142c:	0002165a 	.word	0x0002165a
    1430:	480003c0 	.word	0x480003c0

00001434 <BKUP_Read>:
    1434:	b510      	push	{r4, lr}
    1436:	0004      	movs	r4, r0
    1438:	2807      	cmp	r0, #7
    143a:	d903      	bls.n	1444 <BKUP_Read+0x10>
    143c:	212e      	movs	r1, #46	; 0x2e
    143e:	4803      	ldr	r0, [pc, #12]	; (144c <BKUP_Read+0x18>)
    1440:	f7ff ffd6 	bl	13f0 <io_assert_failed>
    1444:	4b02      	ldr	r3, [pc, #8]	; (1450 <BKUP_Read+0x1c>)
    1446:	00a4      	lsls	r4, r4, #2
    1448:	58e0      	ldr	r0, [r4, r3]
    144a:	bd10      	pop	{r4, pc}
    144c:	00021665 	.word	0x00021665
    1450:	480003c0 	.word	0x480003c0

00001454 <BKUP_Set>:
    1454:	b570      	push	{r4, r5, r6, lr}
    1456:	0004      	movs	r4, r0
    1458:	000d      	movs	r5, r1
    145a:	2807      	cmp	r0, #7
    145c:	d903      	bls.n	1466 <BKUP_Set+0x12>
    145e:	213e      	movs	r1, #62	; 0x3e
    1460:	4804      	ldr	r0, [pc, #16]	; (1474 <BKUP_Set+0x20>)
    1462:	f7ff ffc5 	bl	13f0 <io_assert_failed>
    1466:	4b04      	ldr	r3, [pc, #16]	; (1478 <BKUP_Set+0x24>)
    1468:	00a4      	lsls	r4, r4, #2
    146a:	18e4      	adds	r4, r4, r3
    146c:	6823      	ldr	r3, [r4, #0]
    146e:	431d      	orrs	r5, r3
    1470:	6025      	str	r5, [r4, #0]
    1472:	bd70      	pop	{r4, r5, r6, pc}
    1474:	0002166f 	.word	0x0002166f
    1478:	480003c0 	.word	0x480003c0

0000147c <BKUP_Clear>:
    147c:	b570      	push	{r4, r5, r6, lr}
    147e:	0004      	movs	r4, r0
    1480:	000d      	movs	r5, r1
    1482:	2807      	cmp	r0, #7
    1484:	d903      	bls.n	148e <BKUP_Clear+0x12>
    1486:	214e      	movs	r1, #78	; 0x4e
    1488:	4804      	ldr	r0, [pc, #16]	; (149c <BKUP_Clear+0x20>)
    148a:	f7ff ffb1 	bl	13f0 <io_assert_failed>
    148e:	4b04      	ldr	r3, [pc, #16]	; (14a0 <BKUP_Clear+0x24>)
    1490:	00a4      	lsls	r4, r4, #2
    1492:	18e4      	adds	r4, r4, r3
    1494:	6823      	ldr	r3, [r4, #0]
    1496:	43ab      	bics	r3, r5
    1498:	6023      	str	r3, [r4, #0]
    149a:	bd70      	pop	{r4, r5, r6, pc}
    149c:	0002164f 	.word	0x0002164f
    14a0:	480003c0 	.word	0x480003c0

000014a4 <BOOT_Reason>:
    14a4:	20fc      	movs	r0, #252	; 0xfc
    14a6:	4b02      	ldr	r3, [pc, #8]	; (14b0 <BOOT_Reason+0xc>)
    14a8:	681b      	ldr	r3, [r3, #0]
    14aa:	0380      	lsls	r0, r0, #14
    14ac:	4018      	ands	r0, r3
    14ae:	4770      	bx	lr
    14b0:	480003f8 	.word	0x480003f8

000014b4 <DelayNop>:
    14b4:	2300      	movs	r3, #0
    14b6:	4283      	cmp	r3, r0
    14b8:	d002      	beq.n	14c0 <DelayNop+0xc>
    14ba:	46c0      	nop			; (mov r8, r8)
    14bc:	3301      	adds	r3, #1
    14be:	e7fa      	b.n	14b6 <DelayNop+0x2>
    14c0:	4770      	bx	lr

000014c2 <DelayUs>:
    14c2:	b510      	push	{r4, lr}
    14c4:	4b0b      	ldr	r3, [pc, #44]	; (14f4 <DelayUs+0x32>)
    14c6:	0004      	movs	r4, r0
    14c8:	2000      	movs	r0, #0
    14ca:	4798      	blx	r3
    14cc:	4b0a      	ldr	r3, [pc, #40]	; (14f8 <DelayUs+0x36>)
    14ce:	fbb0 f0f3 	udiv	r0, r0, r3
    14d2:	4344      	muls	r4, r0
    14d4:	2005      	movs	r0, #5
    14d6:	4b09      	ldr	r3, [pc, #36]	; (14fc <DelayUs+0x3a>)
    14d8:	681b      	ldr	r3, [r3, #0]
    14da:	fbb4 f0f0 	udiv	r0, r4, r0
    14de:	b133      	cbz	r3, 14ee <DelayUs+0x2c>
    14e0:	0c1a      	lsrs	r2, r3, #16
    14e2:	b102      	cbz	r2, 14e6 <DelayUs+0x24>
    14e4:	4350      	muls	r0, r2
    14e6:	b29b      	uxth	r3, r3
    14e8:	b10b      	cbz	r3, 14ee <DelayUs+0x2c>
    14ea:	fbb0 f0f3 	udiv	r0, r0, r3
    14ee:	4b04      	ldr	r3, [pc, #16]	; (1500 <DelayUs+0x3e>)
    14f0:	4798      	blx	r3
    14f2:	bd10      	pop	{r4, pc}
    14f4:	00004a25 	.word	0x00004a25
    14f8:	000f4240 	.word	0x000f4240
    14fc:	000801f4 	.word	0x000801f4
    1500:	000014b5 	.word	0x000014b5

00001504 <DelayMs>:
    1504:	f240 33e8 	movw	r3, #1000	; 0x3e8
    1508:	b510      	push	{r4, lr}
    150a:	4358      	muls	r0, r3
    150c:	4b01      	ldr	r3, [pc, #4]	; (1514 <DelayMs+0x10>)
    150e:	4798      	blx	r3
    1510:	bd10      	pop	{r4, pc}
    1512:	bf00      	nop
    1514:	000014c3 	.word	0x000014c3

00001518 <EFUSEPowerSwitch>:
    1518:	b510      	push	{r4, lr}
    151a:	4b19      	ldr	r3, [pc, #100]	; (1580 <EFUSEPowerSwitch+0x68>)
    151c:	4c19      	ldr	r4, [pc, #100]	; (1584 <EFUSEPowerSwitch+0x6c>)
    151e:	2901      	cmp	r1, #1
    1520:	d124      	bne.n	156c <EFUSEPowerSwitch+0x54>
    1522:	6821      	ldr	r1, [r4, #0]
    1524:	400b      	ands	r3, r1
    1526:	f646 1100 	movw	r1, #26880	; 0x6900
    152a:	430b      	orrs	r3, r1
    152c:	6023      	str	r3, [r4, #0]
    152e:	2402      	movs	r4, #2
    1530:	4915      	ldr	r1, [pc, #84]	; (1588 <EFUSEPowerSwitch+0x70>)
    1532:	680b      	ldr	r3, [r1, #0]
    1534:	4223      	tst	r3, r4
    1536:	d101      	bne.n	153c <EFUSEPowerSwitch+0x24>
    1538:	4323      	orrs	r3, r4
    153a:	600b      	str	r3, [r1, #0]
    153c:	2402      	movs	r4, #2
    153e:	4913      	ldr	r1, [pc, #76]	; (158c <EFUSEPowerSwitch+0x74>)
    1540:	680b      	ldr	r3, [r1, #0]
    1542:	4223      	tst	r3, r4
    1544:	d101      	bne.n	154a <EFUSEPowerSwitch+0x32>
    1546:	4323      	orrs	r3, r4
    1548:	600b      	str	r3, [r1, #0]
    154a:	2801      	cmp	r0, #1
    154c:	d117      	bne.n	157e <EFUSEPowerSwitch+0x66>
    154e:	4910      	ldr	r1, [pc, #64]	; (1590 <EFUSEPowerSwitch+0x78>)
    1550:	4b10      	ldr	r3, [pc, #64]	; (1594 <EFUSEPowerSwitch+0x7c>)
    1552:	680c      	ldr	r4, [r1, #0]
    1554:	4023      	ands	r3, r4
    1556:	4318      	orrs	r0, r3
    1558:	0213      	lsls	r3, r2, #8
    155a:	f640 7200 	movw	r2, #3840	; 0xf00
    155e:	401a      	ands	r2, r3
    1560:	4310      	orrs	r0, r2
    1562:	6008      	str	r0, [r1, #0]
    1564:	4b0c      	ldr	r3, [pc, #48]	; (1598 <EFUSEPowerSwitch+0x80>)
    1566:	2019      	movs	r0, #25
    1568:	4798      	blx	r3
    156a:	e008      	b.n	157e <EFUSEPowerSwitch+0x66>
    156c:	6822      	ldr	r2, [r4, #0]
    156e:	4013      	ands	r3, r2
    1570:	6023      	str	r3, [r4, #0]
    1572:	2801      	cmp	r0, #1
    1574:	d103      	bne.n	157e <EFUSEPowerSwitch+0x66>
    1576:	4a06      	ldr	r2, [pc, #24]	; (1590 <EFUSEPowerSwitch+0x78>)
    1578:	6813      	ldr	r3, [r2, #0]
    157a:	4383      	bics	r3, r0
    157c:	6013      	str	r3, [r2, #0]
    157e:	bd10      	pop	{r4, pc}
    1580:	ffff00ff 	.word	0xffff00ff
    1584:	480002e4 	.word	0x480002e4
    1588:	48000208 	.word	0x48000208
    158c:	48000210 	.word	0x48000210
    1590:	48000250 	.word	0x48000250
    1594:	fffff0ff 	.word	0xfffff0ff
    1598:	000014c3 	.word	0x000014c3

0000159c <EFUSERead8>:
    159c:	b5f8      	push	{r3, r4, r5, r6, r7, lr}
    159e:	0004      	movs	r4, r0
    15a0:	000e      	movs	r6, r1
    15a2:	0017      	movs	r7, r2
    15a4:	b908      	cbnz	r0, 15aa <EFUSERead8+0xe>
    15a6:	4a24      	ldr	r2, [pc, #144]	; (1638 <EFUSERead8+0x9c>)
    15a8:	6814      	ldr	r4, [r2, #0]
    15aa:	f240 12ff 	movw	r2, #511	; 0x1ff
    15ae:	4296      	cmp	r6, r2
    15b0:	d908      	bls.n	15c4 <EFUSERead8+0x28>
    15b2:	f242 62ae 	movw	r2, #9902	; 0x26ae
    15b6:	b2a1      	uxth	r1, r4
    15b8:	4291      	cmp	r1, r2
    15ba:	d003      	beq.n	15c4 <EFUSERead8+0x28>
    15bc:	23ff      	movs	r3, #255	; 0xff
    15be:	2000      	movs	r0, #0
    15c0:	703b      	strb	r3, [r7, #0]
    15c2:	e037      	b.n	1634 <EFUSERead8+0x98>
    15c4:	2500      	movs	r5, #0
    15c6:	001a      	movs	r2, r3
    15c8:	2101      	movs	r1, #1
    15ca:	2000      	movs	r0, #0
    15cc:	f7ff ffa4 	bl	1518 <EFUSEPowerSwitch>
    15d0:	4a1a      	ldr	r2, [pc, #104]	; (163c <EFUSERead8+0xa0>)
    15d2:	4b1b      	ldr	r3, [pc, #108]	; (1640 <EFUSERead8+0xa4>)
    15d4:	6811      	ldr	r1, [r2, #0]
    15d6:	481b      	ldr	r0, [pc, #108]	; (1644 <EFUSERead8+0xa8>)
    15d8:	400b      	ands	r3, r1
    15da:	6013      	str	r3, [r2, #0]
    15dc:	0233      	lsls	r3, r6, #8
    15de:	4003      	ands	r3, r0
    15e0:	4819      	ldr	r0, [pc, #100]	; (1648 <EFUSERead8+0xac>)
    15e2:	4020      	ands	r0, r4
    15e4:	4c14      	ldr	r4, [pc, #80]	; (1638 <EFUSERead8+0x9c>)
    15e6:	4318      	orrs	r0, r3
    15e8:	6020      	str	r0, [r4, #0]
    15ea:	6823      	ldr	r3, [r4, #0]
    15ec:	2b00      	cmp	r3, #0
    15ee:	db08      	blt.n	1602 <EFUSERead8+0x66>
    15f0:	f644 6320 	movw	r3, #20000	; 0x4e20
    15f4:	429d      	cmp	r5, r3
    15f6:	d00c      	beq.n	1612 <EFUSERead8+0x76>
    15f8:	2005      	movs	r0, #5
    15fa:	4b14      	ldr	r3, [pc, #80]	; (164c <EFUSERead8+0xb0>)
    15fc:	4798      	blx	r3
    15fe:	3501      	adds	r5, #1
    1600:	e7f3      	b.n	15ea <EFUSERead8+0x4e>
    1602:	f644 6320 	movw	r3, #20000	; 0x4e20
    1606:	429d      	cmp	r5, r3
    1608:	d003      	beq.n	1612 <EFUSERead8+0x76>
    160a:	6823      	ldr	r3, [r4, #0]
    160c:	2401      	movs	r4, #1
    160e:	703b      	strb	r3, [r7, #0]
    1610:	e00a      	b.n	1628 <EFUSERead8+0x8c>
    1612:	23ff      	movs	r3, #255	; 0xff
    1614:	703b      	strb	r3, [r7, #0]
    1616:	4b0e      	ldr	r3, [pc, #56]	; (1650 <EFUSERead8+0xb4>)
    1618:	681b      	ldr	r3, [r3, #0]
    161a:	2400      	movs	r4, #0
    161c:	039b      	lsls	r3, r3, #14
    161e:	d503      	bpl.n	1628 <EFUSERead8+0x8c>
    1620:	0031      	movs	r1, r6
    1622:	480c      	ldr	r0, [pc, #48]	; (1654 <EFUSERead8+0xb8>)
    1624:	f7fe ff26 	bl	474 <DiagPrintf>
    1628:	0020      	movs	r0, r4
    162a:	4a0b      	ldr	r2, [pc, #44]	; (1658 <EFUSERead8+0xbc>)
    162c:	4b0b      	ldr	r3, [pc, #44]	; (165c <EFUSERead8+0xc0>)
    162e:	6811      	ldr	r1, [r2, #0]
    1630:	400b      	ands	r3, r1
    1632:	6013      	str	r3, [r2, #0]
    1634:	bdf8      	pop	{r3, r4, r5, r6, r7, pc}
    1636:	bf00      	nop
    1638:	480002e8 	.word	0x480002e8
    163c:	480002ec 	.word	0x480002ec
    1640:	fffffbff 	.word	0xfffffbff
    1644:	0003ff00 	.word	0x0003ff00
    1648:	7ffc0000 	.word	0x7ffc0000
    164c:	000014c3 	.word	0x000014c3
    1650:	000801cc 	.word	0x000801cc
    1654:	00020c01 	.word	0x00020c01
    1658:	480002e4 	.word	0x480002e4
    165c:	ffff00ff 	.word	0xffff00ff

00001660 <EFUSEWrite8>:
    1660:	b5f7      	push	{r0, r1, r2, r4, r5, r6, r7, lr}
    1662:	0005      	movs	r5, r0
    1664:	000e      	movs	r6, r1
    1666:	0017      	movs	r7, r2
    1668:	9301      	str	r3, [sp, #4]
    166a:	b908      	cbnz	r0, 1670 <EFUSEWrite8+0x10>
    166c:	4b28      	ldr	r3, [pc, #160]	; (1710 <EFUSEWrite8+0xb0>)
    166e:	681d      	ldr	r5, [r3, #0]
    1670:	f240 13ff 	movw	r3, #511	; 0x1ff
    1674:	429e      	cmp	r6, r3
    1676:	d905      	bls.n	1684 <EFUSEWrite8+0x24>
    1678:	f241 529d 	movw	r2, #5533	; 0x159d
    167c:	b2ab      	uxth	r3, r5
    167e:	2000      	movs	r0, #0
    1680:	4293      	cmp	r3, r2
    1682:	d144      	bne.n	170e <EFUSEWrite8+0xae>
    1684:	2101      	movs	r1, #1
    1686:	9a01      	ldr	r2, [sp, #4]
    1688:	0008      	movs	r0, r1
    168a:	f7ff ff45 	bl	1518 <EFUSEPowerSwitch>
    168e:	f240 4200 	movw	r2, #1024	; 0x400
    1692:	4c20      	ldr	r4, [pc, #128]	; (1714 <EFUSEWrite8+0xb4>)
    1694:	6823      	ldr	r3, [r4, #0]
    1696:	4313      	orrs	r3, r2
    1698:	4a1f      	ldr	r2, [pc, #124]	; (1718 <EFUSEWrite8+0xb8>)
    169a:	6023      	str	r3, [r4, #0]
    169c:	0233      	lsls	r3, r6, #8
    169e:	4013      	ands	r3, r2
    16a0:	2280      	movs	r2, #128	; 0x80
    16a2:	0612      	lsls	r2, r2, #24
    16a4:	433a      	orrs	r2, r7
    16a6:	431a      	orrs	r2, r3
    16a8:	4b1c      	ldr	r3, [pc, #112]	; (171c <EFUSEWrite8+0xbc>)
    16aa:	401d      	ands	r5, r3
    16ac:	4b18      	ldr	r3, [pc, #96]	; (1710 <EFUSEWrite8+0xb0>)
    16ae:	4315      	orrs	r5, r2
    16b0:	601d      	str	r5, [r3, #0]
    16b2:	2500      	movs	r5, #0
    16b4:	2014      	movs	r0, #20
    16b6:	4f1a      	ldr	r7, [pc, #104]	; (1720 <EFUSEWrite8+0xc0>)
    16b8:	47b8      	blx	r7
    16ba:	4b15      	ldr	r3, [pc, #84]	; (1710 <EFUSEWrite8+0xb0>)
    16bc:	9300      	str	r3, [sp, #0]
    16be:	9b00      	ldr	r3, [sp, #0]
    16c0:	681b      	ldr	r3, [r3, #0]
    16c2:	2b00      	cmp	r3, #0
    16c4:	da07      	bge.n	16d6 <EFUSEWrite8+0x76>
    16c6:	f644 6320 	movw	r3, #20000	; 0x4e20
    16ca:	429d      	cmp	r5, r3
    16cc:	d009      	beq.n	16e2 <EFUSEWrite8+0x82>
    16ce:	2005      	movs	r0, #5
    16d0:	47b8      	blx	r7
    16d2:	3501      	adds	r5, #1
    16d4:	e7f3      	b.n	16be <EFUSEWrite8+0x5e>
    16d6:	2301      	movs	r3, #1
    16d8:	9300      	str	r3, [sp, #0]
    16da:	f644 6320 	movw	r3, #20000	; 0x4e20
    16de:	429d      	cmp	r5, r3
    16e0:	d109      	bne.n	16f6 <EFUSEWrite8+0x96>
    16e2:	2200      	movs	r2, #0
    16e4:	4b0f      	ldr	r3, [pc, #60]	; (1724 <EFUSEWrite8+0xc4>)
    16e6:	681b      	ldr	r3, [r3, #0]
    16e8:	9200      	str	r2, [sp, #0]
    16ea:	039b      	lsls	r3, r3, #14
    16ec:	d503      	bpl.n	16f6 <EFUSEWrite8+0x96>
    16ee:	0031      	movs	r1, r6
    16f0:	480d      	ldr	r0, [pc, #52]	; (1728 <EFUSEWrite8+0xc8>)
    16f2:	f7fe febf 	bl	474 <DiagPrintf>
    16f6:	6822      	ldr	r2, [r4, #0]
    16f8:	4b0c      	ldr	r3, [pc, #48]	; (172c <EFUSEWrite8+0xcc>)
    16fa:	4013      	ands	r3, r2
    16fc:	6023      	str	r3, [r4, #0]
    16fe:	9a01      	ldr	r2, [sp, #4]
    1700:	2100      	movs	r1, #0
    1702:	2001      	movs	r0, #1
    1704:	f7ff ff08 	bl	1518 <EFUSEPowerSwitch>
    1708:	20c8      	movs	r0, #200	; 0xc8
    170a:	47b8      	blx	r7
    170c:	9800      	ldr	r0, [sp, #0]
    170e:	bdfe      	pop	{r1, r2, r3, r4, r5, r6, r7, pc}
    1710:	480002e8 	.word	0x480002e8
    1714:	480002ec 	.word	0x480002ec
    1718:	0003ff00 	.word	0x0003ff00
    171c:	7ffc0000 	.word	0x7ffc0000
    1720:	000014c3 	.word	0x000014c3
    1724:	000801cc 	.word	0x000801cc
    1728:	00020c17 	.word	0x00020c17
    172c:	fffffbff 	.word	0xfffffbff

00001730 <EFUSE_PG_Packet>:
    1730:	230f      	movs	r3, #15
    1732:	b5f0      	push	{r4, r5, r6, r7, lr}
    1734:	400b      	ands	r3, r1
    1736:	b089      	sub	sp, #36	; 0x24
    1738:	9004      	str	r0, [sp, #16]
    173a:	000d      	movs	r5, r1
    173c:	9205      	str	r2, [sp, #20]
    173e:	9303      	str	r3, [sp, #12]
    1740:	2b0f      	cmp	r3, #15
    1742:	d100      	bne.n	1746 <EFUSE_PG_Packet+0x16>
    1744:	e0fb      	b.n	193e <EFUSE_PG_Packet+0x20e>
    1746:	4e7f      	ldr	r6, [pc, #508]	; (1944 <EFUSE_PG_Packet+0x214>)
    1748:	68b3      	ldr	r3, [r6, #8]
    174a:	041b      	lsls	r3, r3, #16
    174c:	d504      	bpl.n	1758 <EFUSE_PG_Packet+0x28>
    174e:	000a      	movs	r2, r1
    1750:	487d      	ldr	r0, [pc, #500]	; (1948 <EFUSE_PG_Packet+0x218>)
    1752:	9904      	ldr	r1, [sp, #16]
    1754:	f7fe fe8e 	bl	474 <DiagPrintf>
    1758:	2400      	movs	r4, #0
    175a:	f248 0700 	movw	r7, #32768	; 0x8000
    175e:	68b3      	ldr	r3, [r6, #8]
    1760:	423b      	tst	r3, r7
    1762:	d005      	beq.n	1770 <EFUSE_PG_Packet+0x40>
    1764:	9b05      	ldr	r3, [sp, #20]
    1766:	0021      	movs	r1, r4
    1768:	5d1a      	ldrb	r2, [r3, r4]
    176a:	4878      	ldr	r0, [pc, #480]	; (194c <EFUSE_PG_Packet+0x21c>)
    176c:	f7fe fe82 	bl	474 <DiagPrintf>
    1770:	3401      	adds	r4, #1
    1772:	2c08      	cmp	r4, #8
    1774:	d1f3      	bne.n	175e <EFUSE_PG_Packet+0x2e>
    1776:	2400      	movs	r4, #0
    1778:	260e      	movs	r6, #14
    177a:	ab04      	add	r3, sp, #16
    177c:	18f6      	adds	r6, r6, r3
    177e:	0032      	movs	r2, r6
    1780:	2307      	movs	r3, #7
    1782:	0021      	movs	r1, r4
    1784:	2000      	movs	r0, #0
    1786:	f7ff ff09 	bl	159c <EFUSERead8>
    178a:	7833      	ldrb	r3, [r6, #0]
    178c:	2bff      	cmp	r3, #255	; 0xff
    178e:	d025      	beq.n	17dc <EFUSE_PG_Packet+0xac>
    1790:	220f      	movs	r2, #15
    1792:	270f      	movs	r7, #15
    1794:	439a      	bics	r2, r3
    1796:	401f      	ands	r7, r3
    1798:	0013      	movs	r3, r2
    179a:	2f0f      	cmp	r7, #15
    179c:	d117      	bne.n	17ce <EFUSE_PG_Packet+0x9e>
    179e:	260f      	movs	r6, #15
    17a0:	ab04      	add	r3, sp, #16
    17a2:	18f6      	adds	r6, r6, r3
    17a4:	3401      	adds	r4, #1
    17a6:	2307      	movs	r3, #7
    17a8:	0032      	movs	r2, r6
    17aa:	0021      	movs	r1, r4
    17ac:	2000      	movs	r0, #0
    17ae:	f7ff fef5 	bl	159c <EFUSERead8>
    17b2:	7833      	ldrb	r3, [r6, #0]
    17b4:	439f      	bics	r7, r3
    17b6:	b167      	cbz	r7, 17d2 <EFUSE_PG_Packet+0xa2>
    17b8:	2301      	movs	r3, #1
    17ba:	421f      	tst	r7, r3
    17bc:	d000      	beq.n	17c0 <EFUSE_PG_Packet+0x90>
    17be:	3402      	adds	r4, #2
    17c0:	087f      	lsrs	r7, r7, #1
    17c2:	e7f8      	b.n	17b6 <EFUSE_PG_Packet+0x86>
    17c4:	2201      	movs	r2, #1
    17c6:	4213      	tst	r3, r2
    17c8:	d000      	beq.n	17cc <EFUSE_PG_Packet+0x9c>
    17ca:	3402      	adds	r4, #2
    17cc:	085b      	lsrs	r3, r3, #1
    17ce:	2b00      	cmp	r3, #0
    17d0:	d1f8      	bne.n	17c4 <EFUSE_PG_Packet+0x94>
    17d2:	f240 131d 	movw	r3, #285	; 0x11d
    17d6:	3401      	adds	r4, #1
    17d8:	429c      	cmp	r4, r3
    17da:	d9cd      	bls.n	1778 <EFUSE_PG_Packet+0x48>
    17dc:	2601      	movs	r6, #1
    17de:	0033      	movs	r3, r6
    17e0:	402b      	ands	r3, r5
    17e2:	425e      	negs	r6, r3
    17e4:	415e      	adcs	r6, r3
    17e6:	0076      	lsls	r6, r6, #1
    17e8:	07ab      	lsls	r3, r5, #30
    17ea:	d400      	bmi.n	17ee <EFUSE_PG_Packet+0xbe>
    17ec:	3602      	adds	r6, #2
    17ee:	076b      	lsls	r3, r5, #29
    17f0:	d400      	bmi.n	17f4 <EFUSE_PG_Packet+0xc4>
    17f2:	3602      	adds	r6, #2
    17f4:	072b      	lsls	r3, r5, #28
    17f6:	d400      	bmi.n	17fa <EFUSE_PG_Packet+0xca>
    17f8:	3602      	adds	r6, #2
    17fa:	4d52      	ldr	r5, [pc, #328]	; (1944 <EFUSE_PG_Packet+0x214>)
    17fc:	68ab      	ldr	r3, [r5, #8]
    17fe:	041b      	lsls	r3, r3, #16
    1800:	d505      	bpl.n	180e <EFUSE_PG_Packet+0xde>
    1802:	9b03      	ldr	r3, [sp, #12]
    1804:	0032      	movs	r2, r6
    1806:	4952      	ldr	r1, [pc, #328]	; (1950 <EFUSE_PG_Packet+0x220>)
    1808:	4852      	ldr	r0, [pc, #328]	; (1954 <EFUSE_PG_Packet+0x224>)
    180a:	f7fe fe33 	bl	474 <DiagPrintf>
    180e:	f240 111d 	movw	r1, #285	; 0x11d
    1812:	1932      	adds	r2, r6, r4
    1814:	f248 0300 	movw	r3, #32768	; 0x8000
    1818:	428a      	cmp	r2, r1
    181a:	d900      	bls.n	181e <EFUSE_PG_Packet+0xee>
    181c:	e087      	b.n	192e <EFUSE_PG_Packet+0x1fe>
    181e:	9a04      	ldr	r2, [sp, #16]
    1820:	2a0e      	cmp	r2, #14
    1822:	d934      	bls.n	188e <EFUSE_PG_Packet+0x15e>
    1824:	68aa      	ldr	r2, [r5, #8]
    1826:	421a      	tst	r2, r3
    1828:	d008      	beq.n	183c <EFUSE_PG_Packet+0x10c>
    182a:	220f      	movs	r2, #15
    182c:	9b04      	ldr	r3, [sp, #16]
    182e:	015b      	lsls	r3, r3, #5
    1830:	4313      	orrs	r3, r2
    1832:	4947      	ldr	r1, [pc, #284]	; (1950 <EFUSE_PG_Packet+0x220>)
    1834:	0022      	movs	r2, r4
    1836:	4848      	ldr	r0, [pc, #288]	; (1958 <EFUSE_PG_Packet+0x228>)
    1838:	f7fe fe1c 	bl	474 <DiagPrintf>
    183c:	9b04      	ldr	r3, [sp, #16]
    183e:	015a      	lsls	r2, r3, #5
    1840:	230f      	movs	r3, #15
    1842:	431a      	orrs	r2, r3
    1844:	b2d2      	uxtb	r2, r2
    1846:	3b08      	subs	r3, #8
    1848:	0021      	movs	r1, r4
    184a:	2000      	movs	r0, #0
    184c:	f7ff ff08 	bl	1660 <EFUSEWrite8>
    1850:	2801      	cmp	r0, #1
    1852:	d174      	bne.n	193e <EFUSE_PG_Packet+0x20e>
    1854:	68ab      	ldr	r3, [r5, #8]
    1856:	9a04      	ldr	r2, [sp, #16]
    1858:	1c66      	adds	r6, r4, #1
    185a:	0055      	lsls	r5, r2, #1
    185c:	041b      	lsls	r3, r3, #16
    185e:	d508      	bpl.n	1872 <EFUSE_PG_Packet+0x142>
    1860:	23f0      	movs	r3, #240	; 0xf0
    1862:	9a03      	ldr	r2, [sp, #12]
    1864:	402b      	ands	r3, r5
    1866:	4313      	orrs	r3, r2
    1868:	4939      	ldr	r1, [pc, #228]	; (1950 <EFUSE_PG_Packet+0x220>)
    186a:	0032      	movs	r2, r6
    186c:	483a      	ldr	r0, [pc, #232]	; (1958 <EFUSE_PG_Packet+0x228>)
    186e:	f7fe fe01 	bl	474 <DiagPrintf>
    1872:	230f      	movs	r3, #15
    1874:	439d      	bics	r5, r3
    1876:	9b03      	ldr	r3, [sp, #12]
    1878:	431d      	orrs	r5, r3
    187a:	b2ea      	uxtb	r2, r5
    187c:	2307      	movs	r3, #7
    187e:	0031      	movs	r1, r6
    1880:	2000      	movs	r0, #0
    1882:	f7ff feed 	bl	1660 <EFUSEWrite8>
    1886:	3402      	adds	r4, #2
    1888:	2801      	cmp	r0, #1
    188a:	d158      	bne.n	193e <EFUSE_PG_Packet+0x20e>
    188c:	e016      	b.n	18bc <EFUSE_PG_Packet+0x18c>
    188e:	68aa      	ldr	r2, [r5, #8]
    1890:	9904      	ldr	r1, [sp, #16]
    1892:	010d      	lsls	r5, r1, #4
    1894:	421a      	tst	r2, r3
    1896:	d006      	beq.n	18a6 <EFUSE_PG_Packet+0x176>
    1898:	9b03      	ldr	r3, [sp, #12]
    189a:	0022      	movs	r2, r4
    189c:	432b      	orrs	r3, r5
    189e:	492c      	ldr	r1, [pc, #176]	; (1950 <EFUSE_PG_Packet+0x220>)
    18a0:	482d      	ldr	r0, [pc, #180]	; (1958 <EFUSE_PG_Packet+0x228>)
    18a2:	f7fe fde7 	bl	474 <DiagPrintf>
    18a6:	9b03      	ldr	r3, [sp, #12]
    18a8:	431d      	orrs	r5, r3
    18aa:	b2ea      	uxtb	r2, r5
    18ac:	2307      	movs	r3, #7
    18ae:	0021      	movs	r1, r4
    18b0:	2000      	movs	r0, #0
    18b2:	f7ff fed5 	bl	1660 <EFUSEWrite8>
    18b6:	2801      	cmp	r0, #1
    18b8:	d141      	bne.n	193e <EFUSE_PG_Packet+0x20e>
    18ba:	3401      	adds	r4, #1
    18bc:	2600      	movs	r6, #0
    18be:	9d05      	ldr	r5, [sp, #20]
    18c0:	9b03      	ldr	r3, [sp, #12]
    18c2:	2201      	movs	r2, #1
    18c4:	4133      	asrs	r3, r6
    18c6:	4213      	tst	r3, r2
    18c8:	d12b      	bne.n	1922 <EFUSE_PG_Packet+0x1f2>
    18ca:	f248 0200 	movw	r2, #32768	; 0x8000
    18ce:	4f1d      	ldr	r7, [pc, #116]	; (1944 <EFUSE_PG_Packet+0x214>)
    18d0:	68bb      	ldr	r3, [r7, #8]
    18d2:	4213      	tst	r3, r2
    18d4:	d006      	beq.n	18e4 <EFUSE_PG_Packet+0x1b4>
    18d6:	782b      	ldrb	r3, [r5, #0]
    18d8:	0022      	movs	r2, r4
    18da:	9600      	str	r6, [sp, #0]
    18dc:	491c      	ldr	r1, [pc, #112]	; (1950 <EFUSE_PG_Packet+0x220>)
    18de:	481f      	ldr	r0, [pc, #124]	; (195c <EFUSE_PG_Packet+0x22c>)
    18e0:	f7fe fdc8 	bl	474 <DiagPrintf>
    18e4:	782a      	ldrb	r2, [r5, #0]
    18e6:	2307      	movs	r3, #7
    18e8:	0021      	movs	r1, r4
    18ea:	2000      	movs	r0, #0
    18ec:	f7ff feb8 	bl	1660 <EFUSEWrite8>
    18f0:	2801      	cmp	r0, #1
    18f2:	d124      	bne.n	193e <EFUSE_PG_Packet+0x20e>
    18f4:	f248 0200 	movw	r2, #32768	; 0x8000
    18f8:	1c63      	adds	r3, r4, #1
    18fa:	9304      	str	r3, [sp, #16]
    18fc:	68bb      	ldr	r3, [r7, #8]
    18fe:	4213      	tst	r3, r2
    1900:	d006      	beq.n	1910 <EFUSE_PG_Packet+0x1e0>
    1902:	786b      	ldrb	r3, [r5, #1]
    1904:	1c62      	adds	r2, r4, #1
    1906:	9600      	str	r6, [sp, #0]
    1908:	4911      	ldr	r1, [pc, #68]	; (1950 <EFUSE_PG_Packet+0x220>)
    190a:	4814      	ldr	r0, [pc, #80]	; (195c <EFUSE_PG_Packet+0x22c>)
    190c:	f7fe fdb2 	bl	474 <DiagPrintf>
    1910:	786a      	ldrb	r2, [r5, #1]
    1912:	2307      	movs	r3, #7
    1914:	1c61      	adds	r1, r4, #1
    1916:	2000      	movs	r0, #0
    1918:	f7ff fea2 	bl	1660 <EFUSEWrite8>
    191c:	2801      	cmp	r0, #1
    191e:	d10e      	bne.n	193e <EFUSE_PG_Packet+0x20e>
    1920:	3402      	adds	r4, #2
    1922:	3601      	adds	r6, #1
    1924:	3502      	adds	r5, #2
    1926:	2e04      	cmp	r6, #4
    1928:	d1ca      	bne.n	18c0 <EFUSE_PG_Packet+0x190>
    192a:	2001      	movs	r0, #1
    192c:	e008      	b.n	1940 <EFUSE_PG_Packet+0x210>
    192e:	682a      	ldr	r2, [r5, #0]
    1930:	421a      	tst	r2, r3
    1932:	d004      	beq.n	193e <EFUSE_PG_Packet+0x20e>
    1934:	0032      	movs	r2, r6
    1936:	0021      	movs	r1, r4
    1938:	4809      	ldr	r0, [pc, #36]	; (1960 <EFUSE_PG_Packet+0x230>)
    193a:	f7fe fd9b 	bl	474 <DiagPrintf>
    193e:	2000      	movs	r0, #0
    1940:	b009      	add	sp, #36	; 0x24
    1942:	bdf0      	pop	{r4, r5, r6, r7, pc}
    1944:	000801cc 	.word	0x000801cc
    1948:	00020c2e 	.word	0x00020c2e
    194c:	00020c72 	.word	0x00020c72
    1950:	00021683 	.word	0x00021683
    1954:	00020ca6 	.word	0x00020ca6
    1958:	00020cdc 	.word	0x00020cdc
    195c:	00020d01 	.word	0x00020d01
    1960:	00020d44 	.word	0x00020d44

00001964 <EFUSE_LogicalMap_Read>:
    1964:	b5f0      	push	{r4, r5, r6, r7, lr}
    1966:	f240 4200 	movw	r2, #1024	; 0x400
    196a:	b087      	sub	sp, #28
    196c:	21ff      	movs	r1, #255	; 0xff
    196e:	4b3c      	ldr	r3, [pc, #240]	; (1a60 <EFUSE_LogicalMap_Read+0xfc>)
    1970:	9001      	str	r0, [sp, #4]
    1972:	2600      	movs	r6, #0
    1974:	4798      	blx	r3
    1976:	1c73      	adds	r3, r6, #1
    1978:	9300      	str	r3, [sp, #0]
    197a:	ab04      	add	r3, sp, #16
    197c:	1d5c      	adds	r4, r3, #5
    197e:	0022      	movs	r2, r4
    1980:	2307      	movs	r3, #7
    1982:	0031      	movs	r1, r6
    1984:	2000      	movs	r0, #0
    1986:	f7ff fe09 	bl	159c <EFUSERead8>
    198a:	7824      	ldrb	r4, [r4, #0]
    198c:	2cff      	cmp	r4, #255	; 0xff
    198e:	d108      	bne.n	19a2 <EFUSE_LogicalMap_Read+0x3e>
    1990:	4b34      	ldr	r3, [pc, #208]	; (1a64 <EFUSE_LogicalMap_Read+0x100>)
    1992:	689b      	ldr	r3, [r3, #8]
    1994:	041b      	lsls	r3, r3, #16
    1996:	d560      	bpl.n	1a5a <EFUSE_LogicalMap_Read+0xf6>
    1998:	9900      	ldr	r1, [sp, #0]
    199a:	4833      	ldr	r0, [pc, #204]	; (1a68 <EFUSE_LogicalMap_Read+0x104>)
    199c:	f7fe fd6a 	bl	474 <DiagPrintf>
    19a0:	e05b      	b.n	1a5a <EFUSE_LogicalMap_Read+0xf6>
    19a2:	251f      	movs	r5, #31
    19a4:	4025      	ands	r5, r4
    19a6:	2d0f      	cmp	r5, #15
    19a8:	d114      	bne.n	19d4 <EFUSE_LogicalMap_Read+0x70>
    19aa:	ab04      	add	r3, sp, #16
    19ac:	1d9f      	adds	r7, r3, #6
    19ae:	003a      	movs	r2, r7
    19b0:	2307      	movs	r3, #7
    19b2:	9900      	ldr	r1, [sp, #0]
    19b4:	2000      	movs	r0, #0
    19b6:	f7ff fdf1 	bl	159c <EFUSERead8>
    19ba:	783f      	ldrb	r7, [r7, #0]
    19bc:	3602      	adds	r6, #2
    19be:	403d      	ands	r5, r7
    19c0:	2d0f      	cmp	r5, #15
    19c2:	d046      	beq.n	1a52 <EFUSE_LogicalMap_Read+0xee>
    19c4:	2378      	movs	r3, #120	; 0x78
    19c6:	107f      	asrs	r7, r7, #1
    19c8:	0964      	lsrs	r4, r4, #5
    19ca:	401f      	ands	r7, r3
    19cc:	4327      	orrs	r7, r4
    19ce:	9502      	str	r5, [sp, #8]
    19d0:	9600      	str	r6, [sp, #0]
    19d2:	e003      	b.n	19dc <EFUSE_LogicalMap_Read+0x78>
    19d4:	250f      	movs	r5, #15
    19d6:	0927      	lsrs	r7, r4, #4
    19d8:	402c      	ands	r4, r5
    19da:	9402      	str	r4, [sp, #8]
    19dc:	2300      	movs	r3, #0
    19de:	9e00      	ldr	r6, [sp, #0]
    19e0:	9300      	str	r3, [sp, #0]
    19e2:	00ff      	lsls	r7, r7, #3
    19e4:	2401      	movs	r4, #1
    19e6:	9b00      	ldr	r3, [sp, #0]
    19e8:	409c      	lsls	r4, r3
    19ea:	9b02      	ldr	r3, [sp, #8]
    19ec:	401c      	ands	r4, r3
    19ee:	bb4c      	cbnz	r4, 1a44 <EFUSE_LogicalMap_Read+0xe0>
    19f0:	ab04      	add	r3, sp, #16
    19f2:	1ddd      	adds	r5, r3, #7
    19f4:	0031      	movs	r1, r6
    19f6:	2307      	movs	r3, #7
    19f8:	002a      	movs	r2, r5
    19fa:	0020      	movs	r0, r4
    19fc:	f7ff fdce 	bl	159c <EFUSERead8>
    1a00:	9b01      	ldr	r3, [sp, #4]
    1a02:	19db      	adds	r3, r3, r7
    1a04:	9303      	str	r3, [sp, #12]
    1a06:	9a03      	ldr	r2, [sp, #12]
    1a08:	782b      	ldrb	r3, [r5, #0]
    1a0a:	1c71      	adds	r1, r6, #1
    1a0c:	7013      	strb	r3, [r2, #0]
    1a0e:	0020      	movs	r0, r4
    1a10:	2307      	movs	r3, #7
    1a12:	002a      	movs	r2, r5
    1a14:	3602      	adds	r6, #2
    1a16:	f7ff fdc1 	bl	159c <EFUSERead8>
    1a1a:	2f10      	cmp	r7, #16
    1a1c:	d80c      	bhi.n	1a38 <EFUSE_LogicalMap_Read+0xd4>
    1a1e:	f248 0200 	movw	r2, #32768	; 0x8000
    1a22:	4b10      	ldr	r3, [pc, #64]	; (1a64 <EFUSE_LogicalMap_Read+0x100>)
    1a24:	689b      	ldr	r3, [r3, #8]
    1a26:	4213      	tst	r3, r2
    1a28:	d006      	beq.n	1a38 <EFUSE_LogicalMap_Read+0xd4>
    1a2a:	9a03      	ldr	r2, [sp, #12]
    1a2c:	782b      	ldrb	r3, [r5, #0]
    1a2e:	7812      	ldrb	r2, [r2, #0]
    1a30:	0039      	movs	r1, r7
    1a32:	480e      	ldr	r0, [pc, #56]	; (1a6c <EFUSE_LogicalMap_Read+0x108>)
    1a34:	f7fe fd1e 	bl	474 <DiagPrintf>
    1a38:	aa04      	add	r2, sp, #16
    1a3a:	9b01      	ldr	r3, [sp, #4]
    1a3c:	3207      	adds	r2, #7
    1a3e:	7812      	ldrb	r2, [r2, #0]
    1a40:	19db      	adds	r3, r3, r7
    1a42:	705a      	strb	r2, [r3, #1]
    1a44:	9b00      	ldr	r3, [sp, #0]
    1a46:	3702      	adds	r7, #2
    1a48:	3301      	adds	r3, #1
    1a4a:	b2bf      	uxth	r7, r7
    1a4c:	9300      	str	r3, [sp, #0]
    1a4e:	2b04      	cmp	r3, #4
    1a50:	d1c8      	bne.n	19e4 <EFUSE_LogicalMap_Read+0x80>
    1a52:	f240 131d 	movw	r3, #285	; 0x11d
    1a56:	429e      	cmp	r6, r3
    1a58:	d98d      	bls.n	1976 <EFUSE_LogicalMap_Read+0x12>
    1a5a:	2001      	movs	r0, #1
    1a5c:	b007      	add	sp, #28
    1a5e:	bdf0      	pop	{r4, r5, r6, r7, pc}
    1a60:	000066ad 	.word	0x000066ad
    1a64:	000801cc 	.word	0x000801cc
    1a68:	00020d7b 	.word	0x00020d7b
    1a6c:	00020dc4 	.word	0x00020dc4

00001a70 <EFUSE_LogicalMap_Write>:
    1a70:	f240 4300 	movw	r3, #1024	; 0x400
    1a74:	b5f0      	push	{r4, r5, r6, r7, lr}
    1a76:	4c6d      	ldr	r4, [pc, #436]	; (1c2c <EFUSE_LogicalMap_Write+0x1bc>)
    1a78:	44a5      	add	sp, r4
    1a7a:	9206      	str	r2, [sp, #24]
    1a7c:	1842      	adds	r2, r0, r1
    1a7e:	9003      	str	r0, [sp, #12]
    1a80:	9105      	str	r1, [sp, #20]
    1a82:	429a      	cmp	r2, r3
    1a84:	d900      	bls.n	1a88 <EFUSE_LogicalMap_Write+0x18>
    1a86:	e0c7      	b.n	1c18 <EFUSE_LogicalMap_Write+0x1a8>
    1a88:	ae0a      	add	r6, sp, #40	; 0x28
    1a8a:	0030      	movs	r0, r6
    1a8c:	f7ff ff6a 	bl	1964 <EFUSE_LogicalMap_Read>
    1a90:	9004      	str	r0, [sp, #16]
    1a92:	2800      	cmp	r0, #0
    1a94:	d100      	bne.n	1a98 <EFUSE_LogicalMap_Write+0x28>
    1a96:	e0bf      	b.n	1c18 <EFUSE_LogicalMap_Write+0x1a8>
    1a98:	9b03      	ldr	r3, [sp, #12]
    1a9a:	af08      	add	r7, sp, #32
    1a9c:	08db      	lsrs	r3, r3, #3
    1a9e:	9307      	str	r3, [sp, #28]
    1aa0:	2208      	movs	r2, #8
    1aa2:	4b63      	ldr	r3, [pc, #396]	; (1c30 <EFUSE_LogicalMap_Write+0x1c0>)
    1aa4:	21ff      	movs	r1, #255	; 0xff
    1aa6:	0038      	movs	r0, r7
    1aa8:	4798      	blx	r3
    1aaa:	2407      	movs	r4, #7
    1aac:	2201      	movs	r2, #1
    1aae:	9b03      	ldr	r3, [sp, #12]
    1ab0:	401c      	ands	r4, r3
    1ab2:	4013      	ands	r3, r2
    1ab4:	b1db      	cbz	r3, 1aee <EFUSE_LogicalMap_Write+0x7e>
    1ab6:	9b06      	ldr	r3, [sp, #24]
    1ab8:	9903      	ldr	r1, [sp, #12]
    1aba:	781b      	ldrb	r3, [r3, #0]
    1abc:	5c71      	ldrb	r1, [r6, r1]
    1abe:	250f      	movs	r5, #15
    1ac0:	4299      	cmp	r1, r3
    1ac2:	d011      	beq.n	1ae8 <EFUSE_LogicalMap_Write+0x78>
    1ac4:	0861      	lsrs	r1, r4, #1
    1ac6:	408a      	lsls	r2, r1
    1ac8:	4395      	bics	r5, r2
    1aca:	9a03      	ldr	r2, [sp, #12]
    1acc:	18b6      	adds	r6, r6, r2
    1ace:	3e01      	subs	r6, #1
    1ad0:	7832      	ldrb	r2, [r6, #0]
    1ad2:	1e61      	subs	r1, r4, #1
    1ad4:	547a      	strb	r2, [r7, r1]
    1ad6:	4a57      	ldr	r2, [pc, #348]	; (1c34 <EFUSE_LogicalMap_Write+0x1c4>)
    1ad8:	6892      	ldr	r2, [r2, #8]
    1ada:	553b      	strb	r3, [r7, r4]
    1adc:	0412      	lsls	r2, r2, #16
    1ade:	d503      	bpl.n	1ae8 <EFUSE_LogicalMap_Write+0x78>
    1ae0:	5c7a      	ldrb	r2, [r7, r1]
    1ae2:	4855      	ldr	r0, [pc, #340]	; (1c38 <EFUSE_LogicalMap_Write+0x1c8>)
    1ae4:	f7fe fcc6 	bl	474 <DiagPrintf>
    1ae8:	3401      	adds	r4, #1
    1aea:	2601      	movs	r6, #1
    1aec:	e001      	b.n	1af2 <EFUSE_LogicalMap_Write+0x82>
    1aee:	001e      	movs	r6, r3
    1af0:	250f      	movs	r5, #15
    1af2:	f248 0700 	movw	r7, #32768	; 0x8000
    1af6:	2c07      	cmp	r4, #7
    1af8:	d85f      	bhi.n	1bba <EFUSE_LogicalMap_Write+0x14a>
    1afa:	9b05      	ldr	r3, [sp, #20]
    1afc:	429e      	cmp	r6, r3
    1afe:	d100      	bne.n	1b02 <EFUSE_LogicalMap_Write+0x92>
    1b00:	e08c      	b.n	1c1c <EFUSE_LogicalMap_Write+0x1ac>
    1b02:	1b9b      	subs	r3, r3, r6
    1b04:	469c      	mov	ip, r3
    1b06:	4662      	mov	r2, ip
    1b08:	9b03      	ldr	r3, [sp, #12]
    1b0a:	18f3      	adds	r3, r6, r3
    1b0c:	2a01      	cmp	r2, #1
    1b0e:	d123      	bne.n	1b58 <EFUSE_LogicalMap_Write+0xe8>
    1b10:	9906      	ldr	r1, [sp, #24]
    1b12:	a806      	add	r0, sp, #24
    1b14:	320f      	adds	r2, #15
    1b16:	1880      	adds	r0, r0, r2
    1b18:	5d89      	ldrb	r1, [r1, r6]
    1b1a:	5cc0      	ldrb	r0, [r0, r3]
    1b1c:	4288      	cmp	r0, r1
    1b1e:	d019      	beq.n	1b54 <EFUSE_LogicalMap_Write+0xe4>
    1b20:	4662      	mov	r2, ip
    1b22:	0860      	lsrs	r0, r4, #1
    1b24:	4082      	lsls	r2, r0
    1b26:	2008      	movs	r0, #8
    1b28:	4395      	bics	r5, r2
    1b2a:	aa06      	add	r2, sp, #24
    1b2c:	1812      	adds	r2, r2, r0
    1b2e:	5511      	strb	r1, [r2, r4]
    1b30:	aa0a      	add	r2, sp, #40	; 0x28
    1b32:	18d3      	adds	r3, r2, r3
    1b34:	785b      	ldrb	r3, [r3, #1]
    1b36:	aa08      	add	r2, sp, #32
    1b38:	1912      	adds	r2, r2, r4
    1b3a:	7053      	strb	r3, [r2, #1]
    1b3c:	4a3d      	ldr	r2, [pc, #244]	; (1c34 <EFUSE_LogicalMap_Write+0x1c4>)
    1b3e:	6892      	ldr	r2, [r2, #8]
    1b40:	423a      	tst	r2, r7
    1b42:	d007      	beq.n	1b54 <EFUSE_LogicalMap_Write+0xe4>
    1b44:	aa06      	add	r2, sp, #24
    1b46:	1812      	adds	r2, r2, r0
    1b48:	5d12      	ldrb	r2, [r2, r4]
    1b4a:	0021      	movs	r1, r4
    1b4c:	9500      	str	r5, [sp, #0]
    1b4e:	483b      	ldr	r0, [pc, #236]	; (1c3c <EFUSE_LogicalMap_Write+0x1cc>)
    1b50:	f7fe fc90 	bl	474 <DiagPrintf>
    1b54:	3601      	adds	r6, #1
    1b56:	e030      	b.n	1bba <EFUSE_LogicalMap_Write+0x14a>
    1b58:	2010      	movs	r0, #16
    1b5a:	9a06      	ldr	r2, [sp, #24]
    1b5c:	5d91      	ldrb	r1, [r2, r6]
    1b5e:	aa06      	add	r2, sp, #24
    1b60:	1812      	adds	r2, r2, r0
    1b62:	5cd2      	ldrb	r2, [r2, r3]
    1b64:	428a      	cmp	r2, r1
    1b66:	d107      	bne.n	1b78 <EFUSE_LogicalMap_Write+0x108>
    1b68:	9a06      	ldr	r2, [sp, #24]
    1b6a:	a80a      	add	r0, sp, #40	; 0x28
    1b6c:	1992      	adds	r2, r2, r6
    1b6e:	18c3      	adds	r3, r0, r3
    1b70:	7852      	ldrb	r2, [r2, #1]
    1b72:	785b      	ldrb	r3, [r3, #1]
    1b74:	429a      	cmp	r2, r3
    1b76:	d01a      	beq.n	1bae <EFUSE_LogicalMap_Write+0x13e>
    1b78:	2201      	movs	r2, #1
    1b7a:	0863      	lsrs	r3, r4, #1
    1b7c:	409a      	lsls	r2, r3
    1b7e:	4395      	bics	r5, r2
    1b80:	2208      	movs	r2, #8
    1b82:	ab06      	add	r3, sp, #24
    1b84:	189b      	adds	r3, r3, r2
    1b86:	5519      	strb	r1, [r3, r4]
    1b88:	9b06      	ldr	r3, [sp, #24]
    1b8a:	199b      	adds	r3, r3, r6
    1b8c:	785b      	ldrb	r3, [r3, #1]
    1b8e:	aa08      	add	r2, sp, #32
    1b90:	1912      	adds	r2, r2, r4
    1b92:	7053      	strb	r3, [r2, #1]
    1b94:	4a27      	ldr	r2, [pc, #156]	; (1c34 <EFUSE_LogicalMap_Write+0x1c4>)
    1b96:	6892      	ldr	r2, [r2, #8]
    1b98:	423a      	tst	r2, r7
    1b9a:	d008      	beq.n	1bae <EFUSE_LogicalMap_Write+0x13e>
    1b9c:	2108      	movs	r1, #8
    1b9e:	aa06      	add	r2, sp, #24
    1ba0:	1852      	adds	r2, r2, r1
    1ba2:	5d12      	ldrb	r2, [r2, r4]
    1ba4:	0021      	movs	r1, r4
    1ba6:	9500      	str	r5, [sp, #0]
    1ba8:	4825      	ldr	r0, [pc, #148]	; (1c40 <EFUSE_LogicalMap_Write+0x1d0>)
    1baa:	f7fe fc63 	bl	474 <DiagPrintf>
    1bae:	9b05      	ldr	r3, [sp, #20]
    1bb0:	3602      	adds	r6, #2
    1bb2:	42b3      	cmp	r3, r6
    1bb4:	d032      	beq.n	1c1c <EFUSE_LogicalMap_Write+0x1ac>
    1bb6:	3402      	adds	r4, #2
    1bb8:	e79d      	b.n	1af6 <EFUSE_LogicalMap_Write+0x86>
    1bba:	2d0f      	cmp	r5, #15
    1bbc:	d01e      	beq.n	1bfc <EFUSE_LogicalMap_Write+0x18c>
    1bbe:	4c1d      	ldr	r4, [pc, #116]	; (1c34 <EFUSE_LogicalMap_Write+0x1c4>)
    1bc0:	68a3      	ldr	r3, [r4, #8]
    1bc2:	423b      	tst	r3, r7
    1bc4:	d003      	beq.n	1bce <EFUSE_LogicalMap_Write+0x15e>
    1bc6:	9907      	ldr	r1, [sp, #28]
    1bc8:	481e      	ldr	r0, [pc, #120]	; (1c44 <EFUSE_LogicalMap_Write+0x1d4>)
    1bca:	f7fe fc53 	bl	474 <DiagPrintf>
    1bce:	68a3      	ldr	r3, [r4, #8]
    1bd0:	423b      	tst	r3, r7
    1bd2:	d003      	beq.n	1bdc <EFUSE_LogicalMap_Write+0x16c>
    1bd4:	0029      	movs	r1, r5
    1bd6:	481c      	ldr	r0, [pc, #112]	; (1c48 <EFUSE_LogicalMap_Write+0x1d8>)
    1bd8:	f7fe fc4c 	bl	474 <DiagPrintf>
    1bdc:	466b      	mov	r3, sp
    1bde:	b2e9      	uxtb	r1, r5
    1be0:	7f18      	ldrb	r0, [r3, #28]
    1be2:	aa08      	add	r2, sp, #32
    1be4:	f7ff fda4 	bl	1730 <EFUSE_PG_Packet>
    1be8:	9004      	str	r0, [sp, #16]
    1bea:	b938      	cbnz	r0, 1bfc <EFUSE_LogicalMap_Write+0x18c>
    1bec:	6823      	ldr	r3, [r4, #0]
    1bee:	039b      	lsls	r3, r3, #14
    1bf0:	d512      	bpl.n	1c18 <EFUSE_LogicalMap_Write+0x1a8>
    1bf2:	0031      	movs	r1, r6
    1bf4:	4815      	ldr	r0, [pc, #84]	; (1c4c <EFUSE_LogicalMap_Write+0x1dc>)
    1bf6:	f7fe fc3d 	bl	474 <DiagPrintf>
    1bfa:	e011      	b.n	1c20 <EFUSE_LogicalMap_Write+0x1b0>
    1bfc:	9b05      	ldr	r3, [sp, #20]
    1bfe:	42b3      	cmp	r3, r6
    1c00:	d00e      	beq.n	1c20 <EFUSE_LogicalMap_Write+0x1b0>
    1c02:	9b07      	ldr	r3, [sp, #28]
    1c04:	3301      	adds	r3, #1
    1c06:	9307      	str	r3, [sp, #28]
    1c08:	2208      	movs	r2, #8
    1c0a:	21ff      	movs	r1, #255	; 0xff
    1c0c:	a808      	add	r0, sp, #32
    1c0e:	4b08      	ldr	r3, [pc, #32]	; (1c30 <EFUSE_LogicalMap_Write+0x1c0>)
    1c10:	4798      	blx	r3
    1c12:	2400      	movs	r4, #0
    1c14:	250f      	movs	r5, #15
    1c16:	e770      	b.n	1afa <EFUSE_LogicalMap_Write+0x8a>
    1c18:	2000      	movs	r0, #0
    1c1a:	e002      	b.n	1c22 <EFUSE_LogicalMap_Write+0x1b2>
    1c1c:	2d0f      	cmp	r5, #15
    1c1e:	d1ce      	bne.n	1bbe <EFUSE_LogicalMap_Write+0x14e>
    1c20:	9804      	ldr	r0, [sp, #16]
    1c22:	f240 432c 	movw	r3, #1068	; 0x42c
    1c26:	449d      	add	sp, r3
    1c28:	bdf0      	pop	{r4, r5, r6, r7, pc}
    1c2a:	bf00      	nop
    1c2c:	fffffbd4 	.word	0xfffffbd4
    1c30:	000066ad 	.word	0x000066ad
    1c34:	000801cc 	.word	0x000801cc
    1c38:	00020de9 	.word	0x00020de9
    1c3c:	00020e13 	.word	0x00020e13
    1c40:	00020e3f 	.word	0x00020e3f
    1c44:	00020e6b 	.word	0x00020e6b
    1c48:	00020e91 	.word	0x00020e91
    1c4c:	00020eb8 	.word	0x00020eb8

00001c50 <FLASH_SW_CS_Control>:
    1c50:	b5f8      	push	{r3, r4, r5, r6, r7, lr}
    1c52:	4b0b      	ldr	r3, [pc, #44]	; (1c80 <FLASH_SW_CS_Control+0x30>)
    1c54:	335b      	adds	r3, #91	; 0x5b
    1c56:	781b      	ldrb	r3, [r3, #0]
    1c58:	0005      	movs	r5, r0
    1c5a:	2430      	movs	r4, #48	; 0x30
    1c5c:	b903      	cbnz	r3, 1c60 <FLASH_SW_CS_Control+0x10>
    1c5e:	3402      	adds	r4, #2
    1c60:	b2e7      	uxtb	r7, r4
    1c62:	4e08      	ldr	r6, [pc, #32]	; (1c84 <FLASH_SW_CS_Control+0x34>)
    1c64:	2106      	movs	r1, #6
    1c66:	b945      	cbnz	r5, 1c7a <FLASH_SW_CS_Control+0x2a>
    1c68:	2101      	movs	r1, #1
    1c6a:	0020      	movs	r0, r4
    1c6c:	4b06      	ldr	r3, [pc, #24]	; (1c88 <FLASH_SW_CS_Control+0x38>)
    1c6e:	4798      	blx	r3
    1c70:	0029      	movs	r1, r5
    1c72:	0020      	movs	r0, r4
    1c74:	4b05      	ldr	r3, [pc, #20]	; (1c8c <FLASH_SW_CS_Control+0x3c>)
    1c76:	4798      	blx	r3
    1c78:	0029      	movs	r1, r5
    1c7a:	0038      	movs	r0, r7
    1c7c:	47b0      	blx	r6
    1c7e:	bdf8      	pop	{r3, r4, r5, r6, r7, pc}
    1c80:	000801f8 	.word	0x000801f8
    1c84:	000036dd 	.word	0x000036dd
    1c88:	00002e71 	.word	0x00002e71
    1c8c:	00002f9d 	.word	0x00002f9d

00001c90 <FLASH_SetSpiMode>:
    1c90:	b5f0      	push	{r4, r5, r6, r7, lr}
    1c92:	7943      	ldrb	r3, [r0, #5]
    1c94:	005a      	lsls	r2, r3, #1
    1c96:	1843      	adds	r3, r0, r1
    1c98:	7f9b      	ldrb	r3, [r3, #30]
    1c9a:	4353      	muls	r3, r2
    1c9c:	7f42      	ldrb	r2, [r0, #29]
    1c9e:	189b      	adds	r3, r3, r2
    1ca0:	2200      	movs	r2, #0
    1ca2:	0005      	movs	r5, r0
    1ca4:	26c0      	movs	r6, #192	; 0xc0
    1ca6:	4c19      	ldr	r4, [pc, #100]	; (1d0c <FLASH_SetSpiMode+0x7c>)
    1ca8:	60a2      	str	r2, [r4, #8]
    1caa:	3559      	adds	r5, #89	; 0x59
    1cac:	782d      	ldrb	r5, [r5, #0]
    1cae:	4a18      	ldr	r2, [pc, #96]	; (1d10 <FLASH_SetSpiMode+0x80>)
    1cb0:	042d      	lsls	r5, r5, #16
    1cb2:	02b6      	lsls	r6, r6, #10
    1cb4:	6a17      	ldr	r7, [r2, #32]
    1cb6:	402e      	ands	r6, r5
    1cb8:	4d16      	ldr	r5, [pc, #88]	; (1d14 <FLASH_SetSpiMode+0x84>)
    1cba:	051b      	lsls	r3, r3, #20
    1cbc:	403d      	ands	r5, r7
    1cbe:	4335      	orrs	r5, r6
    1cc0:	0d1b      	lsrs	r3, r3, #20
    1cc2:	432b      	orrs	r3, r5
    1cc4:	6213      	str	r3, [r2, #32]
    1cc6:	4b14      	ldr	r3, [pc, #80]	; (1d18 <FLASH_SetSpiMode+0x88>)
    1cc8:	6825      	ldr	r5, [r4, #0]
    1cca:	402b      	ands	r3, r5
    1ccc:	6a55      	ldr	r5, [r2, #36]	; 0x24
    1cce:	0bed      	lsrs	r5, r5, #15
    1cd0:	03ed      	lsls	r5, r5, #15
    1cd2:	6255      	str	r5, [r2, #36]	; 0x24
    1cd4:	2901      	cmp	r1, #1
    1cd6:	d10a      	bne.n	1cee <FLASH_SetSpiMode+0x5e>
    1cd8:	6a51      	ldr	r1, [r2, #36]	; 0x24
    1cda:	6c40      	ldr	r0, [r0, #68]	; 0x44
    1cdc:	4301      	orrs	r1, r0
    1cde:	6251      	str	r1, [r2, #36]	; 0x24
    1ce0:	0782      	lsls	r2, r0, #30
    1ce2:	d501      	bpl.n	1ce8 <FLASH_SetSpiMode+0x58>
    1ce4:	2280      	movs	r2, #128	; 0x80
    1ce6:	e000      	b.n	1cea <FLASH_SetSpiMode+0x5a>
    1ce8:	22a0      	movs	r2, #160	; 0xa0
    1cea:	02d2      	lsls	r2, r2, #11
    1cec:	e00b      	b.n	1d06 <FLASH_SetSpiMode+0x76>
    1cee:	2902      	cmp	r1, #2
    1cf0:	d10a      	bne.n	1d08 <FLASH_SetSpiMode+0x78>
    1cf2:	6a51      	ldr	r1, [r2, #36]	; 0x24
    1cf4:	6c80      	ldr	r0, [r0, #72]	; 0x48
    1cf6:	4301      	orrs	r1, r0
    1cf8:	6251      	str	r1, [r2, #36]	; 0x24
    1cfa:	0702      	lsls	r2, r0, #28
    1cfc:	d501      	bpl.n	1d02 <FLASH_SetSpiMode+0x72>
    1cfe:	2280      	movs	r2, #128	; 0x80
    1d00:	e000      	b.n	1d04 <FLASH_SetSpiMode+0x74>
    1d02:	22a0      	movs	r2, #160	; 0xa0
    1d04:	0312      	lsls	r2, r2, #12
    1d06:	4313      	orrs	r3, r2
    1d08:	6023      	str	r3, [r4, #0]
    1d0a:	bdf0      	pop	{r4, r5, r6, r7, pc}
    1d0c:	48080000 	.word	0x48080000
    1d10:	480800fc 	.word	0x480800fc
    1d14:	fffcf000 	.word	0xfffcf000
    1d18:	ffc0ffff 	.word	0xffc0ffff

00001d1c <FLASH_RxCmd>:
    1d1c:	b5f7      	push	{r0, r1, r2, r4, r5, r6, r7, lr}
    1d1e:	000d      	movs	r5, r1
    1d20:	2700      	movs	r7, #0
    1d22:	4e15      	ldr	r6, [pc, #84]	; (1d78 <FLASH_RxCmd+0x5c>)
    1d24:	4c15      	ldr	r4, [pc, #84]	; (1d7c <FLASH_RxCmd+0x60>)
    1d26:	9000      	str	r0, [sp, #0]
    1d28:	2100      	movs	r1, #0
    1d2a:	0030      	movs	r0, r6
    1d2c:	9201      	str	r2, [sp, #4]
    1d2e:	f7ff ffaf 	bl	1c90 <FLASH_SetSpiMode>
    1d32:	b2ab      	uxth	r3, r5
    1d34:	60a7      	str	r7, [r4, #8]
    1d36:	6063      	str	r3, [r4, #4]
    1d38:	4b11      	ldr	r3, [pc, #68]	; (1d80 <FLASH_RxCmd+0x64>)
    1d3a:	6822      	ldr	r2, [r4, #0]
    1d3c:	4013      	ands	r3, r2
    1d3e:	f240 3200 	movw	r2, #768	; 0x300
    1d42:	4313      	orrs	r3, r2
    1d44:	466a      	mov	r2, sp
    1d46:	6023      	str	r3, [r4, #0]
    1d48:	7812      	ldrb	r2, [r2, #0]
    1d4a:	4b0e      	ldr	r3, [pc, #56]	; (1d84 <FLASH_RxCmd+0x68>)
    1d4c:	701a      	strb	r2, [r3, #0]
    1d4e:	2301      	movs	r3, #1
    1d50:	0038      	movs	r0, r7
    1d52:	60a3      	str	r3, [r4, #8]
    1d54:	f000 f818 	bl	1d88 <FLASH_WaitBusy>
    1d58:	9b01      	ldr	r3, [sp, #4]
    1d5a:	60a7      	str	r7, [r4, #8]
    1d5c:	4a09      	ldr	r2, [pc, #36]	; (1d84 <FLASH_RxCmd+0x68>)
    1d5e:	195d      	adds	r5, r3, r5
    1d60:	42ab      	cmp	r3, r5
    1d62:	d003      	beq.n	1d6c <FLASH_RxCmd+0x50>
    1d64:	7811      	ldrb	r1, [r2, #0]
    1d66:	7019      	strb	r1, [r3, #0]
    1d68:	3301      	adds	r3, #1
    1d6a:	e7f9      	b.n	1d60 <FLASH_RxCmd+0x44>
    1d6c:	7931      	ldrb	r1, [r6, #4]
    1d6e:	0030      	movs	r0, r6
    1d70:	f7ff ff8e 	bl	1c90 <FLASH_SetSpiMode>
    1d74:	bdf7      	pop	{r0, r1, r2, r4, r5, r6, r7, pc}
    1d76:	bf00      	nop
    1d78:	000801f8 	.word	0x000801f8
    1d7c:	48080000 	.word	0x48080000
    1d80:	fff0fcff 	.word	0xfff0fcff
    1d84:	48080060 	.word	0x48080060

00001d88 <FLASH_WaitBusy>:
    1d88:	b573      	push	{r0, r1, r4, r5, r6, lr}
    1d8a:	466b      	mov	r3, sp
    1d8c:	1ddc      	adds	r4, r3, #7
    1d8e:	2300      	movs	r3, #0
    1d90:	0005      	movs	r5, r0
    1d92:	7023      	strb	r3, [r4, #0]
    1d94:	b91d      	cbnz	r5, 1d9e <FLASH_WaitBusy+0x16>
    1d96:	4b15      	ldr	r3, [pc, #84]	; (1dec <FLASH_WaitBusy+0x64>)
    1d98:	6a9a      	ldr	r2, [r3, #40]	; 0x28
    1d9a:	2301      	movs	r3, #1
    1d9c:	e00c      	b.n	1db8 <FLASH_WaitBusy+0x30>
    1d9e:	1e6a      	subs	r2, r5, #1
    1da0:	2a01      	cmp	r2, #1
    1da2:	d80b      	bhi.n	1dbc <FLASH_WaitBusy+0x34>
    1da4:	4e12      	ldr	r6, [pc, #72]	; (1df0 <FLASH_WaitBusy+0x68>)
    1da6:	0033      	movs	r3, r6
    1da8:	334e      	adds	r3, #78	; 0x4e
    1daa:	7818      	ldrb	r0, [r3, #0]
    1dac:	0022      	movs	r2, r4
    1dae:	2101      	movs	r1, #1
    1db0:	f7ff ffb4 	bl	1d1c <FLASH_RxCmd>
    1db4:	7823      	ldrb	r3, [r4, #0]
    1db6:	6932      	ldr	r2, [r6, #16]
    1db8:	4013      	ands	r3, r2
    1dba:	e013      	b.n	1de4 <FLASH_WaitBusy+0x5c>
    1dbc:	2d03      	cmp	r5, #3
    1dbe:	d111      	bne.n	1de4 <FLASH_WaitBusy+0x5c>
    1dc0:	4e0b      	ldr	r6, [pc, #44]	; (1df0 <FLASH_WaitBusy+0x68>)
    1dc2:	0033      	movs	r3, r6
    1dc4:	334e      	adds	r3, #78	; 0x4e
    1dc6:	7818      	ldrb	r0, [r3, #0]
    1dc8:	0022      	movs	r2, r4
    1dca:	2101      	movs	r1, #1
    1dcc:	f7ff ffa6 	bl	1d1c <FLASH_RxCmd>
    1dd0:	7822      	ldrb	r2, [r4, #0]
    1dd2:	6971      	ldr	r1, [r6, #20]
    1dd4:	2301      	movs	r3, #1
    1dd6:	4211      	tst	r1, r2
    1dd8:	d004      	beq.n	1de4 <FLASH_WaitBusy+0x5c>
    1dda:	6933      	ldr	r3, [r6, #16]
    1ddc:	4013      	ands	r3, r2
    1dde:	1e5a      	subs	r2, r3, #1
    1de0:	4193      	sbcs	r3, r2
    1de2:	b2db      	uxtb	r3, r3
    1de4:	2b00      	cmp	r3, #0
    1de6:	d1d5      	bne.n	1d94 <FLASH_WaitBusy+0xc>
    1de8:	bd73      	pop	{r0, r1, r4, r5, r6, pc}
    1dea:	bf00      	nop
    1dec:	48080000 	.word	0x48080000
    1df0:	000801f8 	.word	0x000801f8

00001df4 <FLASH_RxData>:
    1df4:	b5f7      	push	{r0, r1, r2, r4, r5, r6, r7, lr}
    1df6:	0015      	movs	r5, r2
    1df8:	9301      	str	r3, [sp, #4]
    1dfa:	4b2c      	ldr	r3, [pc, #176]	; (1eac <FLASH_RxData+0xb8>)
    1dfc:	b900      	cbnz	r0, 1e00 <FLASH_RxData+0xc>
    1dfe:	7a18      	ldrb	r0, [r3, #8]
    1e00:	f240 3c00 	movw	ip, #768	; 0x300
    1e04:	2700      	movs	r7, #0
    1e06:	4666      	mov	r6, ip
    1e08:	4c29      	ldr	r4, [pc, #164]	; (1eb0 <FLASH_RxData+0xbc>)
    1e0a:	60a7      	str	r7, [r4, #8]
    1e0c:	6822      	ldr	r2, [r4, #0]
    1e0e:	4316      	orrs	r6, r2
    1e10:	b2aa      	uxth	r2, r5
    1e12:	6026      	str	r6, [r4, #0]
    1e14:	6062      	str	r2, [r4, #4]
    1e16:	001a      	movs	r2, r3
    1e18:	325a      	adds	r2, #90	; 0x5a
    1e1a:	7812      	ldrb	r2, [r2, #0]
    1e1c:	3359      	adds	r3, #89	; 0x59
    1e1e:	b12a      	cbz	r2, 1e2c <FLASH_RxData+0x38>
    1e20:	781b      	ldrb	r3, [r3, #0]
    1e22:	2b03      	cmp	r3, #3
    1e24:	d003      	beq.n	1e2e <FLASH_RxData+0x3a>
    1e26:	2704      	movs	r7, #4
    1e28:	b10b      	cbz	r3, 1e2e <FLASH_RxData+0x3a>
    1e2a:	e002      	b.n	1e32 <FLASH_RxData+0x3e>
    1e2c:	781f      	ldrb	r7, [r3, #0]
    1e2e:	4b21      	ldr	r3, [pc, #132]	; (1eb4 <FLASH_RxData+0xc0>)
    1e30:	61df      	str	r7, [r3, #28]
    1e32:	4e1e      	ldr	r6, [pc, #120]	; (1eac <FLASH_RxData+0xb8>)
    1e34:	2301      	movs	r3, #1
    1e36:	46b4      	mov	ip, r6
    1e38:	2659      	movs	r6, #89	; 0x59
    1e3a:	6123      	str	r3, [r4, #16]
    1e3c:	2300      	movs	r3, #0
    1e3e:	44b4      	add	ip, r6
    1e40:	4666      	mov	r6, ip
    1e42:	61e3      	str	r3, [r4, #28]
    1e44:	7836      	ldrb	r6, [r6, #0]
    1e46:	0c0f      	lsrs	r7, r1, #16
    1e48:	0a0b      	lsrs	r3, r1, #8
    1e4a:	2e03      	cmp	r6, #3
    1e4c:	d110      	bne.n	1e70 <FLASH_RxData+0x7c>
    1e4e:	f64f 7c00 	movw	ip, #65280	; 0xff00
    1e52:	041b      	lsls	r3, r3, #16
    1e54:	4666      	mov	r6, ip
    1e56:	469c      	mov	ip, r3
    1e58:	023f      	lsls	r7, r7, #8
    1e5a:	23ff      	movs	r3, #255	; 0xff
    1e5c:	4037      	ands	r7, r6
    1e5e:	4666      	mov	r6, ip
    1e60:	041b      	lsls	r3, r3, #16
    1e62:	4033      	ands	r3, r6
    1e64:	433b      	orrs	r3, r7
    1e66:	0609      	lsls	r1, r1, #24
    1e68:	4319      	orrs	r1, r3
    1e6a:	4308      	orrs	r0, r1
    1e6c:	6620      	str	r0, [r4, #96]	; 0x60
    1e6e:	e004      	b.n	1e7a <FLASH_RxData+0x86>
    1e70:	b91e      	cbnz	r6, 1e7a <FLASH_RxData+0x86>
    1e72:	4b11      	ldr	r3, [pc, #68]	; (1eb8 <FLASH_RxData+0xc4>)
    1e74:	ba09      	rev	r1, r1
    1e76:	7018      	strb	r0, [r3, #0]
    1e78:	6621      	str	r1, [r4, #96]	; 0x60
    1e7a:	b112      	cbz	r2, 1e82 <FLASH_RxData+0x8e>
    1e7c:	2200      	movs	r2, #0
    1e7e:	4b0e      	ldr	r3, [pc, #56]	; (1eb8 <FLASH_RxData+0xc4>)
    1e80:	701a      	strb	r2, [r3, #0]
    1e82:	2301      	movs	r3, #1
    1e84:	2000      	movs	r0, #0
    1e86:	60a3      	str	r3, [r4, #8]
    1e88:	f7ff ff7e 	bl	1d88 <FLASH_WaitBusy>
    1e8c:	2208      	movs	r2, #8
    1e8e:	9b01      	ldr	r3, [sp, #4]
    1e90:	4909      	ldr	r1, [pc, #36]	; (1eb8 <FLASH_RxData+0xc4>)
    1e92:	195d      	adds	r5, r3, r5
    1e94:	42ab      	cmp	r3, r5
    1e96:	d006      	beq.n	1ea6 <FLASH_RxData+0xb2>
    1e98:	6aa0      	ldr	r0, [r4, #40]	; 0x28
    1e9a:	4210      	tst	r0, r2
    1e9c:	d0fa      	beq.n	1e94 <FLASH_RxData+0xa0>
    1e9e:	7808      	ldrb	r0, [r1, #0]
    1ea0:	7018      	strb	r0, [r3, #0]
    1ea2:	3301      	adds	r3, #1
    1ea4:	e7f6      	b.n	1e94 <FLASH_RxData+0xa0>
    1ea6:	2300      	movs	r3, #0
    1ea8:	60a3      	str	r3, [r4, #8]
    1eaa:	bdf7      	pop	{r0, r1, r2, r4, r5, r6, r7, pc}
    1eac:	000801f8 	.word	0x000801f8
    1eb0:	48080000 	.word	0x48080000
    1eb4:	480800fc 	.word	0x480800fc
    1eb8:	48080060 	.word	0x48080060

00001ebc <FLASH_TxCmd>:
    1ebc:	b5f0      	push	{r4, r5, r6, r7, lr}
    1ebe:	4d1a      	ldr	r5, [pc, #104]	; (1f28 <FLASH_TxCmd+0x6c>)
    1ec0:	4c1a      	ldr	r4, [pc, #104]	; (1f2c <FLASH_TxCmd+0x70>)
    1ec2:	69eb      	ldr	r3, [r5, #28]
    1ec4:	b085      	sub	sp, #20
    1ec6:	9301      	str	r3, [sp, #4]
    1ec8:	6823      	ldr	r3, [r4, #0]
    1eca:	9003      	str	r0, [sp, #12]
    1ecc:	000e      	movs	r6, r1
    1ece:	0017      	movs	r7, r2
    1ed0:	9302      	str	r3, [sp, #8]
    1ed2:	290c      	cmp	r1, #12
    1ed4:	d903      	bls.n	1ede <FLASH_TxCmd+0x22>
    1ed6:	21f1      	movs	r1, #241	; 0xf1
    1ed8:	4815      	ldr	r0, [pc, #84]	; (1f30 <FLASH_TxCmd+0x74>)
    1eda:	f7ff fa89 	bl	13f0 <io_assert_failed>
    1ede:	2200      	movs	r2, #0
    1ee0:	60a2      	str	r2, [r4, #8]
    1ee2:	4b14      	ldr	r3, [pc, #80]	; (1f34 <FLASH_TxCmd+0x78>)
    1ee4:	6821      	ldr	r1, [r4, #0]
    1ee6:	400b      	ands	r3, r1
    1ee8:	6023      	str	r3, [r4, #0]
    1eea:	2e03      	cmp	r6, #3
    1eec:	d901      	bls.n	1ef2 <FLASH_TxCmd+0x36>
    1eee:	61ea      	str	r2, [r5, #28]
    1ef0:	e000      	b.n	1ef4 <FLASH_TxCmd+0x38>
    1ef2:	61ee      	str	r6, [r5, #28]
    1ef4:	466b      	mov	r3, sp
    1ef6:	4a10      	ldr	r2, [pc, #64]	; (1f38 <FLASH_TxCmd+0x7c>)
    1ef8:	7b1b      	ldrb	r3, [r3, #12]
    1efa:	7013      	strb	r3, [r2, #0]
    1efc:	003b      	movs	r3, r7
    1efe:	1bd9      	subs	r1, r3, r7
    1f00:	428e      	cmp	r6, r1
    1f02:	d903      	bls.n	1f0c <FLASH_TxCmd+0x50>
    1f04:	7819      	ldrb	r1, [r3, #0]
    1f06:	3301      	adds	r3, #1
    1f08:	7011      	strb	r1, [r2, #0]
    1f0a:	e7f8      	b.n	1efe <FLASH_TxCmd+0x42>
    1f0c:	2301      	movs	r3, #1
    1f0e:	2000      	movs	r0, #0
    1f10:	60a3      	str	r3, [r4, #8]
    1f12:	f7ff ff39 	bl	1d88 <FLASH_WaitBusy>
    1f16:	2300      	movs	r3, #0
    1f18:	60a3      	str	r3, [r4, #8]
    1f1a:	9b01      	ldr	r3, [sp, #4]
    1f1c:	61eb      	str	r3, [r5, #28]
    1f1e:	9b02      	ldr	r3, [sp, #8]
    1f20:	6023      	str	r3, [r4, #0]
    1f22:	b005      	add	sp, #20
    1f24:	bdf0      	pop	{r4, r5, r6, r7, pc}
    1f26:	bf00      	nop
    1f28:	480800fc 	.word	0x480800fc
    1f2c:	48080000 	.word	0x48080000
    1f30:	000216c0 	.word	0x000216c0
    1f34:	ffc0fcff 	.word	0xffc0fcff
    1f38:	48080060 	.word	0x48080060

00001f3c <FLASH_WriteEn>:
    1f3c:	b510      	push	{r4, lr}
    1f3e:	2001      	movs	r0, #1
    1f40:	f7ff ff22 	bl	1d88 <FLASH_WaitBusy>
    1f44:	2200      	movs	r2, #0
    1f46:	4b05      	ldr	r3, [pc, #20]	; (1f5c <FLASH_WriteEn+0x20>)
    1f48:	334c      	adds	r3, #76	; 0x4c
    1f4a:	7818      	ldrb	r0, [r3, #0]
    1f4c:	0011      	movs	r1, r2
    1f4e:	f7ff ffb5 	bl	1ebc <FLASH_TxCmd>
    1f52:	2003      	movs	r0, #3
    1f54:	f7ff ff18 	bl	1d88 <FLASH_WaitBusy>
    1f58:	bd10      	pop	{r4, pc}
    1f5a:	bf00      	nop
    1f5c:	000801f8 	.word	0x000801f8

00001f60 <FLASH_TxData256B>:
    1f60:	b5f7      	push	{r0, r1, r2, r4, r5, r6, r7, lr}
    1f62:	4d33      	ldr	r5, [pc, #204]	; (2030 <FLASH_TxData256B+0xd0>)
    1f64:	682b      	ldr	r3, [r5, #0]
    1f66:	9301      	str	r3, [sp, #4]
    1f68:	f240 1300 	movw	r3, #256	; 0x100
    1f6c:	0004      	movs	r4, r0
    1f6e:	000e      	movs	r6, r1
    1f70:	0017      	movs	r7, r2
    1f72:	4299      	cmp	r1, r3
    1f74:	d904      	bls.n	1f80 <FLASH_TxData256B+0x20>
    1f76:	f240 1142 	movw	r1, #322	; 0x142
    1f7a:	482e      	ldr	r0, [pc, #184]	; (2034 <FLASH_TxData256B+0xd4>)
    1f7c:	f7ff fa38 	bl	13f0 <io_assert_failed>
    1f80:	07b3      	lsls	r3, r6, #30
    1f82:	d004      	beq.n	1f8e <FLASH_TxData256B+0x2e>
    1f84:	f240 1143 	movw	r1, #323	; 0x143
    1f88:	482a      	ldr	r0, [pc, #168]	; (2034 <FLASH_TxData256B+0xd4>)
    1f8a:	f7ff fa31 	bl	13f0 <io_assert_failed>
    1f8e:	07a3      	lsls	r3, r4, #30
    1f90:	d004      	beq.n	1f9c <FLASH_TxData256B+0x3c>
    1f92:	f240 1144 	movw	r1, #324	; 0x144
    1f96:	4827      	ldr	r0, [pc, #156]	; (2034 <FLASH_TxData256B+0xd4>)
    1f98:	f7ff fa2a 	bl	13f0 <io_assert_failed>
    1f9c:	f240 1200 	movw	r2, #256	; 0x100
    1fa0:	b2e3      	uxtb	r3, r4
    1fa2:	199b      	adds	r3, r3, r6
    1fa4:	4293      	cmp	r3, r2
    1fa6:	d904      	bls.n	1fb2 <FLASH_TxData256B+0x52>
    1fa8:	f240 1145 	movw	r1, #325	; 0x145
    1fac:	4821      	ldr	r0, [pc, #132]	; (2034 <FLASH_TxData256B+0xd4>)
    1fae:	f7ff fa1f 	bl	13f0 <io_assert_failed>
    1fb2:	f7ff ffc3 	bl	1f3c <FLASH_WriteEn>
    1fb6:	2300      	movs	r3, #0
    1fb8:	60ab      	str	r3, [r5, #8]
    1fba:	4b1f      	ldr	r3, [pc, #124]	; (2038 <FLASH_TxData256B+0xd8>)
    1fbc:	682a      	ldr	r2, [r5, #0]
    1fbe:	4013      	ands	r3, r2
    1fc0:	602b      	str	r3, [r5, #0]
    1fc2:	4b1e      	ldr	r3, [pc, #120]	; (203c <FLASH_TxData256B+0xdc>)
    1fc4:	3359      	adds	r3, #89	; 0x59
    1fc6:	781a      	ldrb	r2, [r3, #0]
    1fc8:	4b1d      	ldr	r3, [pc, #116]	; (2040 <FLASH_TxData256B+0xe0>)
    1fca:	0a21      	lsrs	r1, r4, #8
    1fcc:	61da      	str	r2, [r3, #28]
    1fce:	0c23      	lsrs	r3, r4, #16
    1fd0:	2a03      	cmp	r2, #3
    1fd2:	d10d      	bne.n	1ff0 <FLASH_TxData256B+0x90>
    1fd4:	021a      	lsls	r2, r3, #8
    1fd6:	f64f 7300 	movw	r3, #65280	; 0xff00
    1fda:	401a      	ands	r2, r3
    1fdc:	0623      	lsls	r3, r4, #24
    1fde:	2402      	movs	r4, #2
    1fe0:	4323      	orrs	r3, r4
    1fe2:	24ff      	movs	r4, #255	; 0xff
    1fe4:	4313      	orrs	r3, r2
    1fe6:	0424      	lsls	r4, r4, #16
    1fe8:	040a      	lsls	r2, r1, #16
    1fea:	4014      	ands	r4, r2
    1fec:	431c      	orrs	r4, r3
    1fee:	e004      	b.n	1ffa <FLASH_TxData256B+0x9a>
    1ff0:	b922      	cbnz	r2, 1ffc <FLASH_TxData256B+0x9c>
    1ff2:	4b14      	ldr	r3, [pc, #80]	; (2044 <FLASH_TxData256B+0xe4>)
    1ff4:	3202      	adds	r2, #2
    1ff6:	701a      	strb	r2, [r3, #0]
    1ff8:	ba24      	rev	r4, r4
    1ffa:	662c      	str	r4, [r5, #96]	; 0x60
    1ffc:	2000      	movs	r0, #0
    1ffe:	f7ff fe27 	bl	1c50 <FLASH_SW_CS_Control>
    2002:	2301      	movs	r3, #1
    2004:	60ab      	str	r3, [r5, #8]
    2006:	003b      	movs	r3, r7
    2008:	1bda      	subs	r2, r3, r7
    200a:	4296      	cmp	r6, r2
    200c:	d902      	bls.n	2014 <FLASH_TxData256B+0xb4>
    200e:	cb04      	ldmia	r3!, {r2}
    2010:	662a      	str	r2, [r5, #96]	; 0x60
    2012:	e7f9      	b.n	2008 <FLASH_TxData256B+0xa8>
    2014:	2001      	movs	r0, #1
    2016:	f7ff fe1b 	bl	1c50 <FLASH_SW_CS_Control>
    201a:	2000      	movs	r0, #0
    201c:	f7ff feb4 	bl	1d88 <FLASH_WaitBusy>
    2020:	2300      	movs	r3, #0
    2022:	2002      	movs	r0, #2
    2024:	60ab      	str	r3, [r5, #8]
    2026:	f7ff feaf 	bl	1d88 <FLASH_WaitBusy>
    202a:	9b01      	ldr	r3, [sp, #4]
    202c:	602b      	str	r3, [r5, #0]
    202e:	bdf7      	pop	{r0, r1, r2, r4, r5, r6, r7, pc}
    2030:	48080000 	.word	0x48080000
    2034:	00021693 	.word	0x00021693
    2038:	ffc0fcff 	.word	0xffc0fcff
    203c:	000801f8 	.word	0x000801f8
    2040:	480800fc 	.word	0x480800fc
    2044:	48080060 	.word	0x48080060

00002048 <FLASH_TxData12B>:
    2048:	b5f7      	push	{r0, r1, r2, r4, r5, r6, r7, lr}
    204a:	4d31      	ldr	r5, [pc, #196]	; (2110 <FLASH_TxData12B+0xc8>)
    204c:	682b      	ldr	r3, [r5, #0]
    204e:	0004      	movs	r4, r0
    2050:	000e      	movs	r6, r1
    2052:	0017      	movs	r7, r2
    2054:	9301      	str	r3, [sp, #4]
    2056:	290c      	cmp	r1, #12
    2058:	d904      	bls.n	2064 <FLASH_TxData12B+0x1c>
    205a:	f240 118d 	movw	r1, #397	; 0x18d
    205e:	482d      	ldr	r0, [pc, #180]	; (2114 <FLASH_TxData12B+0xcc>)
    2060:	f7ff f9c6 	bl	13f0 <io_assert_failed>
    2064:	07b3      	lsls	r3, r6, #30
    2066:	d004      	beq.n	2072 <FLASH_TxData12B+0x2a>
    2068:	f240 118e 	movw	r1, #398	; 0x18e
    206c:	4829      	ldr	r0, [pc, #164]	; (2114 <FLASH_TxData12B+0xcc>)
    206e:	f7ff f9bf 	bl	13f0 <io_assert_failed>
    2072:	07a3      	lsls	r3, r4, #30
    2074:	d004      	beq.n	2080 <FLASH_TxData12B+0x38>
    2076:	f240 118f 	movw	r1, #399	; 0x18f
    207a:	4826      	ldr	r0, [pc, #152]	; (2114 <FLASH_TxData12B+0xcc>)
    207c:	f7ff f9b8 	bl	13f0 <io_assert_failed>
    2080:	f240 1200 	movw	r2, #256	; 0x100
    2084:	b2e3      	uxtb	r3, r4
    2086:	199b      	adds	r3, r3, r6
    2088:	4293      	cmp	r3, r2
    208a:	d904      	bls.n	2096 <FLASH_TxData12B+0x4e>
    208c:	f240 1190 	movw	r1, #400	; 0x190
    2090:	4820      	ldr	r0, [pc, #128]	; (2114 <FLASH_TxData12B+0xcc>)
    2092:	f7ff f9ad 	bl	13f0 <io_assert_failed>
    2096:	f7ff ff51 	bl	1f3c <FLASH_WriteEn>
    209a:	2300      	movs	r3, #0
    209c:	60ab      	str	r3, [r5, #8]
    209e:	4b1e      	ldr	r3, [pc, #120]	; (2118 <FLASH_TxData12B+0xd0>)
    20a0:	682a      	ldr	r2, [r5, #0]
    20a2:	4013      	ands	r3, r2
    20a4:	602b      	str	r3, [r5, #0]
    20a6:	4b1d      	ldr	r3, [pc, #116]	; (211c <FLASH_TxData12B+0xd4>)
    20a8:	3359      	adds	r3, #89	; 0x59
    20aa:	781a      	ldrb	r2, [r3, #0]
    20ac:	4b1c      	ldr	r3, [pc, #112]	; (2120 <FLASH_TxData12B+0xd8>)
    20ae:	0a21      	lsrs	r1, r4, #8
    20b0:	61da      	str	r2, [r3, #28]
    20b2:	0c23      	lsrs	r3, r4, #16
    20b4:	2a03      	cmp	r2, #3
    20b6:	d110      	bne.n	20da <FLASH_TxData12B+0x92>
    20b8:	021a      	lsls	r2, r3, #8
    20ba:	f64f 7300 	movw	r3, #65280	; 0xff00
    20be:	401a      	ands	r2, r3
    20c0:	0623      	lsls	r3, r4, #24
    20c2:	2402      	movs	r4, #2
    20c4:	4323      	orrs	r3, r4
    20c6:	24ff      	movs	r4, #255	; 0xff
    20c8:	4313      	orrs	r3, r2
    20ca:	0424      	lsls	r4, r4, #16
    20cc:	040a      	lsls	r2, r1, #16
    20ce:	4014      	ands	r4, r2
    20d0:	431c      	orrs	r4, r3
    20d2:	662c      	str	r4, [r5, #96]	; 0x60
    20d4:	003b      	movs	r3, r7
    20d6:	4913      	ldr	r1, [pc, #76]	; (2124 <FLASH_TxData12B+0xdc>)
    20d8:	e006      	b.n	20e8 <FLASH_TxData12B+0xa0>
    20da:	2a00      	cmp	r2, #0
    20dc:	d1fa      	bne.n	20d4 <FLASH_TxData12B+0x8c>
    20de:	4b11      	ldr	r3, [pc, #68]	; (2124 <FLASH_TxData12B+0xdc>)
    20e0:	3202      	adds	r2, #2
    20e2:	701a      	strb	r2, [r3, #0]
    20e4:	ba24      	rev	r4, r4
    20e6:	e7f4      	b.n	20d2 <FLASH_TxData12B+0x8a>
    20e8:	1bda      	subs	r2, r3, r7
    20ea:	4296      	cmp	r6, r2
    20ec:	d903      	bls.n	20f6 <FLASH_TxData12B+0xae>
    20ee:	781a      	ldrb	r2, [r3, #0]
    20f0:	3301      	adds	r3, #1
    20f2:	700a      	strb	r2, [r1, #0]
    20f4:	e7f8      	b.n	20e8 <FLASH_TxData12B+0xa0>
    20f6:	2301      	movs	r3, #1
    20f8:	2000      	movs	r0, #0
    20fa:	60ab      	str	r3, [r5, #8]
    20fc:	f7ff fe44 	bl	1d88 <FLASH_WaitBusy>
    2100:	2300      	movs	r3, #0
    2102:	2002      	movs	r0, #2
    2104:	60ab      	str	r3, [r5, #8]
    2106:	f7ff fe3f 	bl	1d88 <FLASH_WaitBusy>
    210a:	9b01      	ldr	r3, [sp, #4]
    210c:	602b      	str	r3, [r5, #0]
    210e:	bdf7      	pop	{r0, r1, r2, r4, r5, r6, r7, pc}
    2110:	48080000 	.word	0x48080000
    2114:	000216a4 	.word	0x000216a4
    2118:	ffc0fcff 	.word	0xffc0fcff
    211c:	000801f8 	.word	0x000801f8
    2120:	480800fc 	.word	0x480800fc
    2124:	48080060 	.word	0x48080060

00002128 <FLASH_SetStatus>:
    2128:	b570      	push	{r4, r5, r6, lr}
    212a:	0005      	movs	r5, r0
    212c:	0016      	movs	r6, r2
    212e:	000c      	movs	r4, r1
    2130:	f7ff ff04 	bl	1f3c <FLASH_WriteEn>
    2134:	0032      	movs	r2, r6
    2136:	0028      	movs	r0, r5
    2138:	b2e1      	uxtb	r1, r4
    213a:	f7ff febf 	bl	1ebc <FLASH_TxCmd>
    213e:	2002      	movs	r0, #2
    2140:	f7ff fe22 	bl	1d88 <FLASH_WaitBusy>
    2144:	bd70      	pop	{r4, r5, r6, pc}

00002146 <FLASH_Erase>:
    2146:	b5f7      	push	{r0, r1, r2, r4, r5, r6, r7, lr}
    2148:	0007      	movs	r7, r0
    214a:	000e      	movs	r6, r1
    214c:	2802      	cmp	r0, #2
    214e:	d904      	bls.n	215a <FLASH_Erase+0x14>
    2150:	f240 2113 	movw	r1, #531	; 0x213
    2154:	4816      	ldr	r0, [pc, #88]	; (21b0 <FLASH_Erase+0x6a>)
    2156:	f7ff f94b 	bl	13f0 <io_assert_failed>
    215a:	4c16      	ldr	r4, [pc, #88]	; (21b4 <FLASH_Erase+0x6e>)
    215c:	0023      	movs	r3, r4
    215e:	3359      	adds	r3, #89	; 0x59
    2160:	7819      	ldrb	r1, [r3, #0]
    2162:	ad01      	add	r5, sp, #4
    2164:	0c32      	lsrs	r2, r6, #16
    2166:	0a33      	lsrs	r3, r6, #8
    2168:	b931      	cbnz	r1, 2178 <FLASH_Erase+0x32>
    216a:	0e31      	lsrs	r1, r6, #24
    216c:	70ee      	strb	r6, [r5, #3]
    216e:	7029      	strb	r1, [r5, #0]
    2170:	706a      	strb	r2, [r5, #1]
    2172:	70ab      	strb	r3, [r5, #2]
    2174:	2604      	movs	r6, #4
    2176:	e003      	b.n	2180 <FLASH_Erase+0x3a>
    2178:	70ae      	strb	r6, [r5, #2]
    217a:	2603      	movs	r6, #3
    217c:	702a      	strb	r2, [r5, #0]
    217e:	706b      	strb	r3, [r5, #1]
    2180:	f7ff fedc 	bl	1f3c <FLASH_WriteEn>
    2184:	b927      	cbnz	r7, 2190 <FLASH_Erase+0x4a>
    2186:	3452      	adds	r4, #82	; 0x52
    2188:	7820      	ldrb	r0, [r4, #0]
    218a:	003a      	movs	r2, r7
    218c:	0039      	movs	r1, r7
    218e:	e009      	b.n	21a4 <FLASH_Erase+0x5e>
    2190:	2f01      	cmp	r7, #1
    2192:	d101      	bne.n	2198 <FLASH_Erase+0x52>
    2194:	3453      	adds	r4, #83	; 0x53
    2196:	e002      	b.n	219e <FLASH_Erase+0x58>
    2198:	2f02      	cmp	r7, #2
    219a:	d105      	bne.n	21a8 <FLASH_Erase+0x62>
    219c:	3454      	adds	r4, #84	; 0x54
    219e:	002a      	movs	r2, r5
    21a0:	0031      	movs	r1, r6
    21a2:	7820      	ldrb	r0, [r4, #0]
    21a4:	f7ff fe8a 	bl	1ebc <FLASH_TxCmd>
    21a8:	2002      	movs	r0, #2
    21aa:	f7ff fded 	bl	1d88 <FLASH_WaitBusy>
    21ae:	bdf7      	pop	{r0, r1, r2, r4, r5, r6, r7, pc}
    21b0:	000216b4 	.word	0x000216b4
    21b4:	000801f8 	.word	0x000801f8

000021b8 <FLASH_DeepPowerDown>:
    21b8:	b510      	push	{r4, lr}
    21ba:	2801      	cmp	r0, #1
    21bc:	d10d      	bne.n	21da <FLASH_DeepPowerDown+0x22>
    21be:	4b0e      	ldr	r3, [pc, #56]	; (21f8 <FLASH_DeepPowerDown+0x40>)
    21c0:	681b      	ldr	r3, [r3, #0]
    21c2:	031b      	lsls	r3, r3, #12
    21c4:	d516      	bpl.n	21f4 <FLASH_DeepPowerDown+0x3c>
    21c6:	f7ff feb9 	bl	1f3c <FLASH_WriteEn>
    21ca:	2200      	movs	r2, #0
    21cc:	4b0b      	ldr	r3, [pc, #44]	; (21fc <FLASH_DeepPowerDown+0x44>)
    21ce:	3356      	adds	r3, #86	; 0x56
    21d0:	7818      	ldrb	r0, [r3, #0]
    21d2:	0011      	movs	r1, r2
    21d4:	f7ff fe72 	bl	1ebc <FLASH_TxCmd>
    21d8:	e00c      	b.n	21f4 <FLASH_DeepPowerDown+0x3c>
    21da:	2200      	movs	r2, #0
    21dc:	4b07      	ldr	r3, [pc, #28]	; (21fc <FLASH_DeepPowerDown+0x44>)
    21de:	3355      	adds	r3, #85	; 0x55
    21e0:	7818      	ldrb	r0, [r3, #0]
    21e2:	0011      	movs	r1, r2
    21e4:	f7ff fe6a 	bl	1ebc <FLASH_TxCmd>
    21e8:	2064      	movs	r0, #100	; 0x64
    21ea:	4b05      	ldr	r3, [pc, #20]	; (2200 <FLASH_DeepPowerDown+0x48>)
    21ec:	4798      	blx	r3
    21ee:	2001      	movs	r0, #1
    21f0:	f7ff fdca 	bl	1d88 <FLASH_WaitBusy>
    21f4:	bd10      	pop	{r4, pc}
    21f6:	bf00      	nop
    21f8:	4800022c 	.word	0x4800022c
    21fc:	000801f8 	.word	0x000801f8
    2200:	000014c3 	.word	0x000014c3

00002204 <FLASH_SetStatusBits>:
    2204:	b5f0      	push	{r4, r5, r6, r7, lr}
    2206:	4d26      	ldr	r5, [pc, #152]	; (22a0 <FLASH_SetStatusBits+0x9c>)
    2208:	002b      	movs	r3, r5
    220a:	b085      	sub	sp, #20
    220c:	9101      	str	r1, [sp, #4]
    220e:	334e      	adds	r3, #78	; 0x4e
    2210:	ac03      	add	r4, sp, #12
    2212:	0022      	movs	r2, r4
    2214:	0007      	movs	r7, r0
    2216:	2101      	movs	r1, #1
    2218:	7818      	ldrb	r0, [r3, #0]
    221a:	f7ff fd7f 	bl	1d1c <FLASH_RxCmd>
    221e:	9a01      	ldr	r2, [sp, #4]
    2220:	7823      	ldrb	r3, [r4, #0]
    2222:	2a01      	cmp	r2, #1
    2224:	d101      	bne.n	222a <FLASH_SetStatusBits+0x26>
    2226:	433b      	orrs	r3, r7
    2228:	e000      	b.n	222c <FLASH_SetStatusBits+0x28>
    222a:	43bb      	bics	r3, r7
    222c:	7023      	strb	r3, [r4, #0]
    222e:	69ab      	ldr	r3, [r5, #24]
    2230:	2601      	movs	r6, #1
    2232:	b19b      	cbz	r3, 225c <FLASH_SetStatusBits+0x58>
    2234:	002b      	movs	r3, r5
    2236:	334f      	adds	r3, #79	; 0x4f
    2238:	7818      	ldrb	r0, [r3, #0]
    223a:	ab02      	add	r3, sp, #8
    223c:	1d5a      	adds	r2, r3, #5
    223e:	0031      	movs	r1, r6
    2240:	f7ff fd6c 	bl	1d1c <FLASH_RxCmd>
    2244:	9a01      	ldr	r2, [sp, #4]
    2246:	0a3f      	lsrs	r7, r7, #8
    2248:	7863      	ldrb	r3, [r4, #1]
    224a:	42b2      	cmp	r2, r6
    224c:	d103      	bne.n	2256 <FLASH_SetStatusBits+0x52>
    224e:	431f      	orrs	r7, r3
    2250:	7067      	strb	r7, [r4, #1]
    2252:	19b6      	adds	r6, r6, r6
    2254:	e002      	b.n	225c <FLASH_SetStatusBits+0x58>
    2256:	2602      	movs	r6, #2
    2258:	43bb      	bics	r3, r7
    225a:	7063      	strb	r3, [r4, #1]
    225c:	002f      	movs	r7, r5
    225e:	3751      	adds	r7, #81	; 0x51
    2260:	783b      	ldrb	r3, [r7, #0]
    2262:	3550      	adds	r5, #80	; 0x50
    2264:	b92b      	cbnz	r3, 2272 <FLASH_SetStatusBits+0x6e>
    2266:	f7ff fe69 	bl	1f3c <FLASH_WriteEn>
    226a:	7828      	ldrb	r0, [r5, #0]
    226c:	0022      	movs	r2, r4
    226e:	0031      	movs	r1, r6
    2270:	e00f      	b.n	2292 <FLASH_SetStatusBits+0x8e>
    2272:	f7ff fe63 	bl	1f3c <FLASH_WriteEn>
    2276:	0022      	movs	r2, r4
    2278:	2101      	movs	r1, #1
    227a:	7828      	ldrb	r0, [r5, #0]
    227c:	f7ff fe1e 	bl	1ebc <FLASH_TxCmd>
    2280:	2002      	movs	r0, #2
    2282:	f7ff fd81 	bl	1d88 <FLASH_WaitBusy>
    2286:	f7ff fe59 	bl	1f3c <FLASH_WriteEn>
    228a:	2101      	movs	r1, #1
    228c:	ab02      	add	r3, sp, #8
    228e:	7838      	ldrb	r0, [r7, #0]
    2290:	1d5a      	adds	r2, r3, #5
    2292:	f7ff fe13 	bl	1ebc <FLASH_TxCmd>
    2296:	2002      	movs	r0, #2
    2298:	f7ff fd76 	bl	1d88 <FLASH_WaitBusy>
    229c:	b005      	add	sp, #20
    229e:	bdf0      	pop	{r4, r5, r6, r7, pc}
    22a0:	000801f8 	.word	0x000801f8

000022a4 <FLASH_StructInit_Micron>:
    22a4:	b5f0      	push	{r4, r5, r6, r7, lr}
    22a6:	2201      	movs	r2, #1
    22a8:	2402      	movs	r4, #2
    22aa:	2300      	movs	r3, #0
    22ac:	2103      	movs	r1, #3
    22ae:	2505      	movs	r5, #5
    22b0:	2609      	movs	r6, #9
    22b2:	6144      	str	r4, [r0, #20]
    22b4:	1884      	adds	r4, r0, r2
    22b6:	6001      	str	r1, [r0, #0]
    22b8:	7142      	strb	r2, [r0, #5]
    22ba:	60c3      	str	r3, [r0, #12]
    22bc:	6102      	str	r2, [r0, #16]
    22be:	6183      	str	r3, [r0, #24]
    22c0:	7742      	strb	r2, [r0, #29]
    22c2:	7783      	strb	r3, [r0, #30]
    22c4:	77c5      	strb	r5, [r0, #31]
    22c6:	77e6      	strb	r6, [r4, #31]
    22c8:	3632      	adds	r6, #50	; 0x32
    22ca:	6246      	str	r6, [r0, #36]	; 0x24
    22cc:	36ca      	adds	r6, #202	; 0xca
    22ce:	36ff      	adds	r6, #255	; 0xff
    22d0:	6446      	str	r6, [r0, #68]	; 0x44
    22d2:	3ed3      	subs	r6, #211	; 0xd3
    22d4:	3eff      	subs	r6, #255	; 0xff
    22d6:	63c6      	str	r6, [r0, #60]	; 0x3c
    22d8:	3e20      	subs	r6, #32
    22da:	6406      	str	r6, [r0, #64]	; 0x40
    22dc:	36d9      	adds	r6, #217	; 0xd9
    22de:	6306      	str	r6, [r0, #48]	; 0x30
    22e0:	3e80      	subs	r6, #128	; 0x80
    22e2:	62c6      	str	r6, [r0, #44]	; 0x2c
    22e4:	f240 3610 	movw	r6, #784	; 0x310
    22e8:	24a2      	movs	r4, #162	; 0xa2
    22ea:	6486      	str	r6, [r0, #72]	; 0x48
    22ec:	0006      	movs	r6, r0
    22ee:	6344      	str	r4, [r0, #52]	; 0x34
    22f0:	3430      	adds	r4, #48	; 0x30
    22f2:	6384      	str	r4, [r0, #56]	; 0x38
    22f4:	364c      	adds	r6, #76	; 0x4c
    22f6:	3c17      	subs	r4, #23
    22f8:	6284      	str	r4, [r0, #40]	; 0x28
    22fa:	2706      	movs	r7, #6
    22fc:	70b5      	strb	r5, [r6, #2]
    22fe:	0005      	movs	r5, r0
    2300:	7037      	strb	r7, [r6, #0]
    2302:	354f      	adds	r5, #79	; 0x4f
    2304:	3799      	adds	r7, #153	; 0x99
    2306:	7077      	strb	r7, [r6, #1]
    2308:	706a      	strb	r2, [r5, #1]
    230a:	0002      	movs	r2, r0
    230c:	702b      	strb	r3, [r5, #0]
    230e:	25c7      	movs	r5, #199	; 0xc7
    2310:	3251      	adds	r2, #81	; 0x51
    2312:	7055      	strb	r5, [r2, #1]
    2314:	3511      	adds	r5, #17
    2316:	7095      	strb	r5, [r2, #2]
    2318:	3db8      	subs	r5, #184	; 0xb8
    231a:	70d5      	strb	r5, [r2, #3]
    231c:	358b      	adds	r5, #139	; 0x8b
    231e:	7115      	strb	r5, [r2, #4]
    2320:	350e      	adds	r5, #14
    2322:	7155      	strb	r5, [r2, #5]
    2324:	7013      	strb	r3, [r2, #0]
    2326:	71d3      	strb	r3, [r2, #7]
    2328:	65c4      	str	r4, [r0, #92]	; 0x5c
    232a:	305a      	adds	r0, #90	; 0x5a
    232c:	7211      	strb	r1, [r2, #8]
    232e:	7003      	strb	r3, [r0, #0]
    2330:	bdf0      	pop	{r4, r5, r6, r7, pc}

00002332 <FLASH_StructInit_MXIC>:
    2332:	2340      	movs	r3, #64	; 0x40
    2334:	b530      	push	{r4, r5, lr}
    2336:	2201      	movs	r2, #1
    2338:	60c3      	str	r3, [r0, #12]
    233a:	2104      	movs	r1, #4
    233c:	3b3e      	subs	r3, #62	; 0x3e
    233e:	6143      	str	r3, [r0, #20]
    2340:	2406      	movs	r4, #6
    2342:	2300      	movs	r3, #0
    2344:	253b      	movs	r5, #59	; 0x3b
    2346:	77c1      	strb	r1, [r0, #31]
    2348:	1881      	adds	r1, r0, r2
    234a:	6002      	str	r2, [r0, #0]
    234c:	7142      	strb	r2, [r0, #5]
    234e:	6102      	str	r2, [r0, #16]
    2350:	6183      	str	r3, [r0, #24]
    2352:	7742      	strb	r2, [r0, #29]
    2354:	7783      	strb	r3, [r0, #30]
    2356:	77cc      	strb	r4, [r1, #31]
    2358:	6245      	str	r5, [r0, #36]	; 0x24
    235a:	35ca      	adds	r5, #202	; 0xca
    235c:	35ff      	adds	r5, #255	; 0xff
    235e:	6445      	str	r5, [r0, #68]	; 0x44
    2360:	3dcd      	subs	r5, #205	; 0xcd
    2362:	3dff      	subs	r5, #255	; 0xff
    2364:	6405      	str	r5, [r0, #64]	; 0x40
    2366:	35b3      	adds	r5, #179	; 0xb3
    2368:	6305      	str	r5, [r0, #48]	; 0x30
    236a:	3d80      	subs	r5, #128	; 0x80
    236c:	62c5      	str	r5, [r0, #44]	; 0x2c
    236e:	f240 3510 	movw	r5, #784	; 0x310
    2372:	6485      	str	r5, [r0, #72]	; 0x48
    2374:	0005      	movs	r5, r0
    2376:	21bb      	movs	r1, #187	; 0xbb
    2378:	354c      	adds	r5, #76	; 0x4c
    237a:	6343      	str	r3, [r0, #52]	; 0x34
    237c:	6383      	str	r3, [r0, #56]	; 0x38
    237e:	6281      	str	r1, [r0, #40]	; 0x28
    2380:	63c3      	str	r3, [r0, #60]	; 0x3c
    2382:	702c      	strb	r4, [r5, #0]
    2384:	0004      	movs	r4, r0
    2386:	259f      	movs	r5, #159	; 0x9f
    2388:	344d      	adds	r4, #77	; 0x4d
    238a:	7025      	strb	r5, [r4, #0]
    238c:	70e2      	strb	r2, [r4, #3]
    238e:	3d9a      	subs	r5, #154	; 0x9a
    2390:	0002      	movs	r2, r0
    2392:	7065      	strb	r5, [r4, #1]
    2394:	70a3      	strb	r3, [r4, #2]
    2396:	2460      	movs	r4, #96	; 0x60
    2398:	3251      	adds	r2, #81	; 0x51
    239a:	7054      	strb	r4, [r2, #1]
    239c:	3478      	adds	r4, #120	; 0x78
    239e:	7094      	strb	r4, [r2, #2]
    23a0:	3cb8      	subs	r4, #184	; 0xb8
    23a2:	70d4      	strb	r4, [r2, #3]
    23a4:	348b      	adds	r4, #139	; 0x8b
    23a6:	7114      	strb	r4, [r2, #4]
    23a8:	340e      	adds	r4, #14
    23aa:	7013      	strb	r3, [r2, #0]
    23ac:	7154      	strb	r4, [r2, #5]
    23ae:	71d3      	strb	r3, [r2, #7]
    23b0:	65c1      	str	r1, [r0, #92]	; 0x5c
    23b2:	39b8      	subs	r1, #184	; 0xb8
    23b4:	305a      	adds	r0, #90	; 0x5a
    23b6:	7211      	strb	r1, [r2, #8]
    23b8:	7003      	strb	r3, [r0, #0]
    23ba:	bd30      	pop	{r4, r5, pc}

000023bc <FLASH_StructInit_GD>:
    23bc:	f240 2300 	movw	r3, #512	; 0x200
    23c0:	b570      	push	{r4, r5, r6, lr}
    23c2:	60c3      	str	r3, [r0, #12]
    23c4:	3bff      	subs	r3, #255	; 0xff
    23c6:	2201      	movs	r2, #1
    23c8:	3bff      	subs	r3, #255	; 0xff
    23ca:	2104      	movs	r1, #4
    23cc:	6143      	str	r3, [r0, #20]
    23ce:	2405      	movs	r4, #5
    23d0:	2300      	movs	r3, #0
    23d2:	2506      	movs	r5, #6
    23d4:	263b      	movs	r6, #59	; 0x3b
    23d6:	77c1      	strb	r1, [r0, #31]
    23d8:	1881      	adds	r1, r0, r2
    23da:	6004      	str	r4, [r0, #0]
    23dc:	7142      	strb	r2, [r0, #5]
    23de:	6102      	str	r2, [r0, #16]
    23e0:	6182      	str	r2, [r0, #24]
    23e2:	7742      	strb	r2, [r0, #29]
    23e4:	7783      	strb	r3, [r0, #30]
    23e6:	77cd      	strb	r5, [r1, #31]
    23e8:	6246      	str	r6, [r0, #36]	; 0x24
    23ea:	36ca      	adds	r6, #202	; 0xca
    23ec:	36ff      	adds	r6, #255	; 0xff
    23ee:	6446      	str	r6, [r0, #68]	; 0x44
    23f0:	3ed3      	subs	r6, #211	; 0xd3
    23f2:	3eff      	subs	r6, #255	; 0xff
    23f4:	6406      	str	r6, [r0, #64]	; 0x40
    23f6:	36b9      	adds	r6, #185	; 0xb9
    23f8:	6306      	str	r6, [r0, #48]	; 0x30
    23fa:	3e80      	subs	r6, #128	; 0x80
    23fc:	62c6      	str	r6, [r0, #44]	; 0x2c
    23fe:	f240 3610 	movw	r6, #784	; 0x310
    2402:	6486      	str	r6, [r0, #72]	; 0x48
    2404:	0006      	movs	r6, r0
    2406:	21bb      	movs	r1, #187	; 0xbb
    2408:	364c      	adds	r6, #76	; 0x4c
    240a:	6343      	str	r3, [r0, #52]	; 0x34
    240c:	6383      	str	r3, [r0, #56]	; 0x38
    240e:	6281      	str	r1, [r0, #40]	; 0x28
    2410:	63c3      	str	r3, [r0, #60]	; 0x3c
    2412:	7035      	strb	r5, [r6, #0]
    2414:	0005      	movs	r5, r0
    2416:	269f      	movs	r6, #159	; 0x9f
    2418:	354d      	adds	r5, #77	; 0x4d
    241a:	706c      	strb	r4, [r5, #1]
    241c:	0004      	movs	r4, r0
    241e:	702e      	strb	r6, [r5, #0]
    2420:	2535      	movs	r5, #53	; 0x35
    2422:	344f      	adds	r4, #79	; 0x4f
    2424:	7062      	strb	r2, [r4, #1]
    2426:	0002      	movs	r2, r0
    2428:	7025      	strb	r5, [r4, #0]
    242a:	2460      	movs	r4, #96	; 0x60
    242c:	3251      	adds	r2, #81	; 0x51
    242e:	7054      	strb	r4, [r2, #1]
    2430:	3478      	adds	r4, #120	; 0x78
    2432:	7094      	strb	r4, [r2, #2]
    2434:	3cb8      	subs	r4, #184	; 0xb8
    2436:	70d4      	strb	r4, [r2, #3]
    2438:	348b      	adds	r4, #139	; 0x8b
    243a:	7114      	strb	r4, [r2, #4]
    243c:	340e      	adds	r4, #14
    243e:	7013      	strb	r3, [r2, #0]
    2440:	7154      	strb	r4, [r2, #5]
    2442:	71d3      	strb	r3, [r2, #7]
    2444:	65c1      	str	r1, [r0, #92]	; 0x5c
    2446:	39b8      	subs	r1, #184	; 0xb8
    2448:	305a      	adds	r0, #90	; 0x5a
    244a:	7211      	strb	r1, [r2, #8]
    244c:	7003      	strb	r3, [r0, #0]
    244e:	bd70      	pop	{r4, r5, r6, pc}

00002450 <FLASH_StructInit>:
    2450:	2302      	movs	r3, #2
    2452:	f240 2100 	movw	r1, #512	; 0x200
    2456:	2201      	movs	r2, #1
    2458:	b530      	push	{r4, r5, lr}
    245a:	6003      	str	r3, [r0, #0]
    245c:	6143      	str	r3, [r0, #20]
    245e:	2406      	movs	r4, #6
    2460:	2300      	movs	r3, #0
    2462:	253b      	movs	r5, #59	; 0x3b
    2464:	60c1      	str	r1, [r0, #12]
    2466:	39fd      	subs	r1, #253	; 0xfd
    2468:	39ff      	subs	r1, #255	; 0xff
    246a:	77c1      	strb	r1, [r0, #31]
    246c:	1881      	adds	r1, r0, r2
    246e:	7142      	strb	r2, [r0, #5]
    2470:	6102      	str	r2, [r0, #16]
    2472:	6182      	str	r2, [r0, #24]
    2474:	7742      	strb	r2, [r0, #29]
    2476:	7783      	strb	r3, [r0, #30]
    2478:	77cc      	strb	r4, [r1, #31]
    247a:	6245      	str	r5, [r0, #36]	; 0x24
    247c:	35ca      	adds	r5, #202	; 0xca
    247e:	35ff      	adds	r5, #255	; 0xff
    2480:	6445      	str	r5, [r0, #68]	; 0x44
    2482:	3dd3      	subs	r5, #211	; 0xd3
    2484:	3dff      	subs	r5, #255	; 0xff
    2486:	6405      	str	r5, [r0, #64]	; 0x40
    2488:	35b9      	adds	r5, #185	; 0xb9
    248a:	6305      	str	r5, [r0, #48]	; 0x30
    248c:	3d80      	subs	r5, #128	; 0x80
    248e:	62c5      	str	r5, [r0, #44]	; 0x2c
    2490:	f240 3510 	movw	r5, #784	; 0x310
    2494:	6485      	str	r5, [r0, #72]	; 0x48
    2496:	0005      	movs	r5, r0
    2498:	21bb      	movs	r1, #187	; 0xbb
    249a:	354c      	adds	r5, #76	; 0x4c
    249c:	6343      	str	r3, [r0, #52]	; 0x34
    249e:	6383      	str	r3, [r0, #56]	; 0x38
    24a0:	6281      	str	r1, [r0, #40]	; 0x28
    24a2:	63c3      	str	r3, [r0, #60]	; 0x3c
    24a4:	702c      	strb	r4, [r5, #0]
    24a6:	0004      	movs	r4, r0
    24a8:	259f      	movs	r5, #159	; 0x9f
    24aa:	344d      	adds	r4, #77	; 0x4d
    24ac:	7025      	strb	r5, [r4, #0]
    24ae:	3d9a      	subs	r5, #154	; 0x9a
    24b0:	7065      	strb	r5, [r4, #1]
    24b2:	70e2      	strb	r2, [r4, #3]
    24b4:	3530      	adds	r5, #48	; 0x30
    24b6:	0002      	movs	r2, r0
    24b8:	70a5      	strb	r5, [r4, #2]
    24ba:	2460      	movs	r4, #96	; 0x60
    24bc:	3251      	adds	r2, #81	; 0x51
    24be:	7054      	strb	r4, [r2, #1]
    24c0:	3478      	adds	r4, #120	; 0x78
    24c2:	7094      	strb	r4, [r2, #2]
    24c4:	3cb8      	subs	r4, #184	; 0xb8
    24c6:	70d4      	strb	r4, [r2, #3]
    24c8:	348b      	adds	r4, #139	; 0x8b
    24ca:	7114      	strb	r4, [r2, #4]
    24cc:	340e      	adds	r4, #14
    24ce:	7013      	strb	r3, [r2, #0]
    24d0:	7154      	strb	r4, [r2, #5]
    24d2:	71d3      	strb	r3, [r2, #7]
    24d4:	65c1      	str	r1, [r0, #92]	; 0x5c
    24d6:	39b8      	subs	r1, #184	; 0xb8
    24d8:	305a      	adds	r0, #90	; 0x5a
    24da:	7211      	strb	r1, [r2, #8]
    24dc:	7003      	strb	r3, [r0, #0]
    24de:	bd30      	pop	{r4, r5, pc}

000024e0 <FLASH_Init>:
    24e0:	2300      	movs	r3, #0
    24e2:	b570      	push	{r4, r5, r6, lr}
    24e4:	4a1a      	ldr	r2, [pc, #104]	; (2550 <FLASH_Init+0x70>)
    24e6:	6093      	str	r3, [r2, #8]
    24e8:	4b1a      	ldr	r3, [pc, #104]	; (2554 <FLASH_Init+0x74>)
    24ea:	2501      	movs	r5, #1
    24ec:	0001      	movs	r1, r0
    24ee:	7958      	ldrb	r0, [r3, #5]
    24f0:	6150      	str	r0, [r2, #20]
    24f2:	0010      	movs	r0, r2
    24f4:	6115      	str	r5, [r2, #16]
    24f6:	6ddc      	ldr	r4, [r3, #92]	; 0x5c
    24f8:	30e0      	adds	r0, #224	; 0xe0
    24fa:	6004      	str	r4, [r0, #0]
    24fc:	6a9c      	ldr	r4, [r3, #40]	; 0x28
    24fe:	6084      	str	r4, [r0, #8]
    2500:	6a5c      	ldr	r4, [r3, #36]	; 0x24
    2502:	3004      	adds	r0, #4
    2504:	6004      	str	r4, [r0, #0]
    2506:	6b5c      	ldr	r4, [r3, #52]	; 0x34
    2508:	6144      	str	r4, [r0, #20]
    250a:	0014      	movs	r4, r2
    250c:	6b98      	ldr	r0, [r3, #56]	; 0x38
    250e:	34fc      	adds	r4, #252	; 0xfc
    2510:	6020      	str	r0, [r4, #0]
    2512:	6bd8      	ldr	r0, [r3, #60]	; 0x3c
    2514:	6060      	str	r0, [r4, #4]
    2516:	6c18      	ldr	r0, [r3, #64]	; 0x40
    2518:	60a0      	str	r0, [r4, #8]
    251a:	0010      	movs	r0, r2
    251c:	6b1e      	ldr	r6, [r3, #48]	; 0x30
    251e:	30f0      	adds	r0, #240	; 0xf0
    2520:	6006      	str	r6, [r0, #0]
    2522:	6ade      	ldr	r6, [r3, #44]	; 0x2c
    2524:	3804      	subs	r0, #4
    2526:	6006      	str	r6, [r0, #0]
    2528:	2002      	movs	r0, #2
    252a:	6966      	ldr	r6, [r4, #20]
    252c:	432e      	orrs	r6, r5
    252e:	6166      	str	r6, [r4, #20]
    2530:	6966      	ldr	r6, [r4, #20]
    2532:	4386      	bics	r6, r0
    2534:	1800      	adds	r0, r0, r0
    2536:	6166      	str	r6, [r4, #20]
    2538:	6050      	str	r0, [r2, #4]
    253a:	001a      	movs	r2, r3
    253c:	3259      	adds	r2, #89	; 0x59
    253e:	7812      	ldrb	r2, [r2, #0]
    2540:	0018      	movs	r0, r3
    2542:	61e2      	str	r2, [r4, #28]
    2544:	7119      	strb	r1, [r3, #4]
    2546:	f7ff fba3 	bl	1c90 <FLASH_SetSpiMode>
    254a:	0028      	movs	r0, r5
    254c:	bd70      	pop	{r4, r5, r6, pc}
    254e:	bf00      	nop
    2550:	48080000 	.word	0x48080000
    2554:	000801f8 	.word	0x000801f8

00002558 <GDMA_StructInit>:
    2558:	b510      	push	{r4, lr}
    255a:	2254      	movs	r2, #84	; 0x54
    255c:	2100      	movs	r1, #0
    255e:	4b05      	ldr	r3, [pc, #20]	; (2574 <GDMA_StructInit+0x1c>)
    2560:	0004      	movs	r4, r0
    2562:	4798      	blx	r3
    2564:	2302      	movs	r3, #2
    2566:	60e3      	str	r3, [r4, #12]
    2568:	60a3      	str	r3, [r4, #8]
    256a:	61e3      	str	r3, [r4, #28]
    256c:	61a3      	str	r3, [r4, #24]
    256e:	2300      	movs	r3, #0
    2570:	6523      	str	r3, [r4, #80]	; 0x50
    2572:	bd10      	pop	{r4, pc}
    2574:	000066ad 	.word	0x000066ad

00002578 <GDMA_SetLLP>:
    2578:	b570      	push	{r4, r5, r6, lr}
    257a:	000e      	movs	r6, r1
    257c:	0015      	movs	r5, r2
    257e:	001c      	movs	r4, r3
    2580:	b118      	cbz	r0, 258a <GDMA_SetLLP+0x12>
    2582:	21b7      	movs	r1, #183	; 0xb7
    2584:	4813      	ldr	r0, [pc, #76]	; (25d4 <GDMA_SetLLP+0x5c>)
    2586:	f7fe ff33 	bl	13f0 <io_assert_failed>
    258a:	2e03      	cmp	r6, #3
    258c:	d903      	bls.n	2596 <GDMA_SetLLP+0x1e>
    258e:	21b8      	movs	r1, #184	; 0xb8
    2590:	4810      	ldr	r0, [pc, #64]	; (25d4 <GDMA_SetLLP+0x5c>)
    2592:	f7fe ff2d 	bl	13f0 <io_assert_failed>
    2596:	2158      	movs	r1, #88	; 0x58
    2598:	4371      	muls	r1, r6
    259a:	4b0f      	ldr	r3, [pc, #60]	; (25d8 <GDMA_SetLLP+0x60>)
    259c:	69a2      	ldr	r2, [r4, #24]
    259e:	18c9      	adds	r1, r1, r3
    25a0:	6988      	ldr	r0, [r1, #24]
    25a2:	0512      	lsls	r2, r2, #20
    25a4:	69cb      	ldr	r3, [r1, #28]
    25a6:	0d12      	lsrs	r2, r2, #20
    25a8:	4313      	orrs	r3, r2
    25aa:	61cb      	str	r3, [r1, #28]
    25ac:	610c      	str	r4, [r1, #16]
    25ae:	490b      	ldr	r1, [pc, #44]	; (25dc <GDMA_SetLLP+0x64>)
    25b0:	b17d      	cbz	r5, 25d2 <GDMA_SetLLP+0x5a>
    25b2:	2d01      	cmp	r5, #1
    25b4:	d100      	bne.n	25b8 <GDMA_SetLLP+0x40>
    25b6:	4008      	ands	r0, r1
    25b8:	69a2      	ldr	r2, [r4, #24]
    25ba:	0b1b      	lsrs	r3, r3, #12
    25bc:	0512      	lsls	r2, r2, #20
    25be:	0d12      	lsrs	r2, r2, #20
    25c0:	031b      	lsls	r3, r3, #12
    25c2:	4313      	orrs	r3, r2
    25c4:	69e2      	ldr	r2, [r4, #28]
    25c6:	60e0      	str	r0, [r4, #12]
    25c8:	6123      	str	r3, [r4, #16]
    25ca:	60a2      	str	r2, [r4, #8]
    25cc:	3d01      	subs	r5, #1
    25ce:	0014      	movs	r4, r2
    25d0:	e7ee      	b.n	25b0 <GDMA_SetLLP+0x38>
    25d2:	bd70      	pop	{r4, r5, r6, pc}
    25d4:	00021788 	.word	0x00021788
    25d8:	48010000 	.word	0x48010000
    25dc:	e7ffffff 	.word	0xe7ffffff

000025e0 <GDMA_ClearINTPendingBit>:
    25e0:	b570      	push	{r4, r5, r6, lr}
    25e2:	000d      	movs	r5, r1
    25e4:	0014      	movs	r4, r2
    25e6:	b118      	cbz	r0, 25f0 <GDMA_ClearINTPendingBit+0x10>
    25e8:	21f9      	movs	r1, #249	; 0xf9
    25ea:	482e      	ldr	r0, [pc, #184]	; (26a4 <GDMA_ClearINTPendingBit+0xc4>)
    25ec:	f7fe ff00 	bl	13f0 <io_assert_failed>
    25f0:	2d03      	cmp	r5, #3
    25f2:	d903      	bls.n	25fc <GDMA_ClearINTPendingBit+0x1c>
    25f4:	21fa      	movs	r1, #250	; 0xfa
    25f6:	482b      	ldr	r0, [pc, #172]	; (26a4 <GDMA_ClearINTPendingBit+0xc4>)
    25f8:	f7fe fefa 	bl	13f0 <io_assert_failed>
    25fc:	231f      	movs	r3, #31
    25fe:	0022      	movs	r2, r4
    2600:	439a      	bics	r2, r3
    2602:	b902      	cbnz	r2, 2606 <GDMA_ClearINTPendingBit+0x26>
    2604:	b91c      	cbnz	r4, 260e <GDMA_ClearINTPendingBit+0x2e>
    2606:	21fb      	movs	r1, #251	; 0xfb
    2608:	4826      	ldr	r0, [pc, #152]	; (26a4 <GDMA_ClearINTPendingBit+0xc4>)
    260a:	f7fe fef1 	bl	13f0 <io_assert_failed>
    260e:	2001      	movs	r0, #1
    2610:	f240 22c0 	movw	r2, #704	; 0x2c0
    2614:	40a8      	lsls	r0, r5
    2616:	4b24      	ldr	r3, [pc, #144]	; (26a8 <GDMA_ClearINTPendingBit+0xc8>)
    2618:	589a      	ldr	r2, [r3, r2]
    261a:	4210      	tst	r0, r2
    261c:	d002      	beq.n	2624 <GDMA_ClearINTPendingBit+0x44>
    261e:	f240 22e8 	movw	r2, #744	; 0x2e8
    2622:	589a      	ldr	r2, [r3, r2]
    2624:	f240 22c8 	movw	r2, #712	; 0x2c8
    2628:	589a      	ldr	r2, [r3, r2]
    262a:	4202      	tst	r2, r0
    262c:	d002      	beq.n	2634 <GDMA_ClearINTPendingBit+0x54>
    262e:	f240 22f0 	movw	r2, #752	; 0x2f0
    2632:	589a      	ldr	r2, [r3, r2]
    2634:	f240 22d0 	movw	r2, #720	; 0x2d0
    2638:	589a      	ldr	r2, [r3, r2]
    263a:	4202      	tst	r2, r0
    263c:	d002      	beq.n	2644 <GDMA_ClearINTPendingBit+0x64>
    263e:	f240 22f8 	movw	r2, #760	; 0x2f8
    2642:	589a      	ldr	r2, [r3, r2]
    2644:	f240 22d8 	movw	r2, #728	; 0x2d8
    2648:	589a      	ldr	r2, [r3, r2]
    264a:	4202      	tst	r2, r0
    264c:	d002      	beq.n	2654 <GDMA_ClearINTPendingBit+0x74>
    264e:	f240 3200 	movw	r2, #768	; 0x300
    2652:	589a      	ldr	r2, [r3, r2]
    2654:	f240 22e0 	movw	r2, #736	; 0x2e0
    2658:	589a      	ldr	r2, [r3, r2]
    265a:	4202      	tst	r2, r0
    265c:	d002      	beq.n	2664 <GDMA_ClearINTPendingBit+0x84>
    265e:	f240 3208 	movw	r2, #776	; 0x308
    2662:	589a      	ldr	r2, [r3, r2]
    2664:	2201      	movs	r2, #1
    2666:	0011      	movs	r1, r2
    2668:	3508      	adds	r5, #8
    266a:	40a9      	lsls	r1, r5
    266c:	4308      	orrs	r0, r1
    266e:	4214      	tst	r4, r2
    2670:	d002      	beq.n	2678 <GDMA_ClearINTPendingBit+0x98>
    2672:	f240 3238 	movw	r2, #824	; 0x338
    2676:	5098      	str	r0, [r3, r2]
    2678:	07a2      	lsls	r2, r4, #30
    267a:	d502      	bpl.n	2682 <GDMA_ClearINTPendingBit+0xa2>
    267c:	f240 3240 	movw	r2, #832	; 0x340
    2680:	5098      	str	r0, [r3, r2]
    2682:	0762      	lsls	r2, r4, #29
    2684:	d502      	bpl.n	268c <GDMA_ClearINTPendingBit+0xac>
    2686:	f240 3248 	movw	r2, #840	; 0x348
    268a:	5098      	str	r0, [r3, r2]
    268c:	0722      	lsls	r2, r4, #28
    268e:	d502      	bpl.n	2696 <GDMA_ClearINTPendingBit+0xb6>
    2690:	f240 3250 	movw	r2, #848	; 0x350
    2694:	5098      	str	r0, [r3, r2]
    2696:	06e2      	lsls	r2, r4, #27
    2698:	d502      	bpl.n	26a0 <GDMA_ClearINTPendingBit+0xc0>
    269a:	f240 3258 	movw	r2, #856	; 0x358
    269e:	5098      	str	r0, [r3, r2]
    26a0:	bd70      	pop	{r4, r5, r6, pc}
    26a2:	bf00      	nop
    26a4:	000217d1 	.word	0x000217d1
    26a8:	48010000 	.word	0x48010000

000026ac <GDMA_ClearINT>:
    26ac:	b510      	push	{r4, lr}
    26ae:	000c      	movs	r4, r1
    26b0:	b120      	cbz	r0, 26bc <GDMA_ClearINT+0x10>
    26b2:	f240 1137 	movw	r1, #311	; 0x137
    26b6:	482d      	ldr	r0, [pc, #180]	; (276c <GDMA_ClearINT+0xc0>)
    26b8:	f7fe fe9a 	bl	13f0 <io_assert_failed>
    26bc:	2c03      	cmp	r4, #3
    26be:	d904      	bls.n	26ca <GDMA_ClearINT+0x1e>
    26c0:	f240 1138 	movw	r1, #312	; 0x138
    26c4:	4829      	ldr	r0, [pc, #164]	; (276c <GDMA_ClearINT+0xc0>)
    26c6:	f7fe fe93 	bl	13f0 <io_assert_failed>
    26ca:	f240 23c0 	movw	r3, #704	; 0x2c0
    26ce:	4a28      	ldr	r2, [pc, #160]	; (2770 <GDMA_ClearINT+0xc4>)
    26d0:	58d1      	ldr	r1, [r2, r3]
    26d2:	2301      	movs	r3, #1
    26d4:	40a3      	lsls	r3, r4
    26d6:	2000      	movs	r0, #0
    26d8:	420b      	tst	r3, r1
    26da:	d006      	beq.n	26ea <GDMA_ClearINT+0x3e>
    26dc:	f240 21e8 	movw	r1, #744	; 0x2e8
    26e0:	5850      	ldr	r0, [r2, r1]
    26e2:	4018      	ands	r0, r3
    26e4:	1e41      	subs	r1, r0, #1
    26e6:	4188      	sbcs	r0, r1
    26e8:	b2c0      	uxtb	r0, r0
    26ea:	f240 21c8 	movw	r1, #712	; 0x2c8
    26ee:	5851      	ldr	r1, [r2, r1]
    26f0:	4219      	tst	r1, r3
    26f2:	d006      	beq.n	2702 <GDMA_ClearINT+0x56>
    26f4:	f240 21f0 	movw	r1, #752	; 0x2f0
    26f8:	5851      	ldr	r1, [r2, r1]
    26fa:	4219      	tst	r1, r3
    26fc:	d001      	beq.n	2702 <GDMA_ClearINT+0x56>
    26fe:	2102      	movs	r1, #2
    2700:	4308      	orrs	r0, r1
    2702:	f240 21d0 	movw	r1, #720	; 0x2d0
    2706:	5851      	ldr	r1, [r2, r1]
    2708:	4219      	tst	r1, r3
    270a:	d006      	beq.n	271a <GDMA_ClearINT+0x6e>
    270c:	f240 21f8 	movw	r1, #760	; 0x2f8
    2710:	5851      	ldr	r1, [r2, r1]
    2712:	4219      	tst	r1, r3
    2714:	d001      	beq.n	271a <GDMA_ClearINT+0x6e>
    2716:	2104      	movs	r1, #4
    2718:	4308      	orrs	r0, r1
    271a:	f240 21d8 	movw	r1, #728	; 0x2d8
    271e:	5851      	ldr	r1, [r2, r1]
    2720:	4219      	tst	r1, r3
    2722:	d006      	beq.n	2732 <GDMA_ClearINT+0x86>
    2724:	f240 3100 	movw	r1, #768	; 0x300
    2728:	5851      	ldr	r1, [r2, r1]
    272a:	4219      	tst	r1, r3
    272c:	d001      	beq.n	2732 <GDMA_ClearINT+0x86>
    272e:	2108      	movs	r1, #8
    2730:	4308      	orrs	r0, r1
    2732:	f240 21e0 	movw	r1, #736	; 0x2e0
    2736:	5851      	ldr	r1, [r2, r1]
    2738:	4219      	tst	r1, r3
    273a:	d006      	beq.n	274a <GDMA_ClearINT+0x9e>
    273c:	f240 3108 	movw	r1, #776	; 0x308
    2740:	5851      	ldr	r1, [r2, r1]
    2742:	4219      	tst	r1, r3
    2744:	d001      	beq.n	274a <GDMA_ClearINT+0x9e>
    2746:	2110      	movs	r1, #16
    2748:	4308      	orrs	r0, r1
    274a:	2101      	movs	r1, #1
    274c:	3408      	adds	r4, #8
    274e:	40a1      	lsls	r1, r4
    2750:	430b      	orrs	r3, r1
    2752:	f240 3138 	movw	r1, #824	; 0x338
    2756:	5053      	str	r3, [r2, r1]
    2758:	3108      	adds	r1, #8
    275a:	5053      	str	r3, [r2, r1]
    275c:	3108      	adds	r1, #8
    275e:	5053      	str	r3, [r2, r1]
    2760:	3108      	adds	r1, #8
    2762:	5053      	str	r3, [r2, r1]
    2764:	3108      	adds	r1, #8
    2766:	5053      	str	r3, [r2, r1]
    2768:	bd10      	pop	{r4, pc}
    276a:	bf00      	nop
    276c:	000216db 	.word	0x000216db
    2770:	48010000 	.word	0x48010000

00002774 <GDMA_INTConfig>:
    2774:	b570      	push	{r4, r5, r6, lr}
    2776:	000d      	movs	r5, r1
    2778:	0014      	movs	r4, r2
    277a:	001e      	movs	r6, r3
    277c:	b120      	cbz	r0, 2788 <GDMA_INTConfig+0x14>
    277e:	f240 116d 	movw	r1, #365	; 0x16d
    2782:	4838      	ldr	r0, [pc, #224]	; (2864 <GDMA_INTConfig+0xf0>)
    2784:	f7fe fe34 	bl	13f0 <io_assert_failed>
    2788:	2d03      	cmp	r5, #3
    278a:	d904      	bls.n	2796 <GDMA_INTConfig+0x22>
    278c:	f240 116e 	movw	r1, #366	; 0x16e
    2790:	4834      	ldr	r0, [pc, #208]	; (2864 <GDMA_INTConfig+0xf0>)
    2792:	f7fe fe2d 	bl	13f0 <io_assert_failed>
    2796:	231f      	movs	r3, #31
    2798:	0022      	movs	r2, r4
    279a:	439a      	bics	r2, r3
    279c:	b902      	cbnz	r2, 27a0 <GDMA_INTConfig+0x2c>
    279e:	b924      	cbnz	r4, 27aa <GDMA_INTConfig+0x36>
    27a0:	f240 116f 	movw	r1, #367	; 0x16f
    27a4:	482f      	ldr	r0, [pc, #188]	; (2864 <GDMA_INTConfig+0xf0>)
    27a6:	f7fe fe23 	bl	13f0 <io_assert_failed>
    27aa:	2201      	movs	r2, #1
    27ac:	002b      	movs	r3, r5
    27ae:	0011      	movs	r1, r2
    27b0:	3308      	adds	r3, #8
    27b2:	4099      	lsls	r1, r3
    27b4:	0013      	movs	r3, r2
    27b6:	40ab      	lsls	r3, r5
    27b8:	430b      	orrs	r3, r1
    27ba:	b346      	cbz	r6, 280e <GDMA_INTConfig+0x9a>
    27bc:	4214      	tst	r4, r2
    27be:	d005      	beq.n	27cc <GDMA_INTConfig+0x58>
    27c0:	f240 3110 	movw	r1, #784	; 0x310
    27c4:	4828      	ldr	r0, [pc, #160]	; (2868 <GDMA_INTConfig+0xf4>)
    27c6:	5842      	ldr	r2, [r0, r1]
    27c8:	431a      	orrs	r2, r3
    27ca:	5042      	str	r2, [r0, r1]
    27cc:	07a2      	lsls	r2, r4, #30
    27ce:	d505      	bpl.n	27dc <GDMA_INTConfig+0x68>
    27d0:	f240 3118 	movw	r1, #792	; 0x318
    27d4:	4824      	ldr	r0, [pc, #144]	; (2868 <GDMA_INTConfig+0xf4>)
    27d6:	5842      	ldr	r2, [r0, r1]
    27d8:	431a      	orrs	r2, r3
    27da:	5042      	str	r2, [r0, r1]
    27dc:	0762      	lsls	r2, r4, #29
    27de:	d505      	bpl.n	27ec <GDMA_INTConfig+0x78>
    27e0:	f240 3120 	movw	r1, #800	; 0x320
    27e4:	4820      	ldr	r0, [pc, #128]	; (2868 <GDMA_INTConfig+0xf4>)
    27e6:	5842      	ldr	r2, [r0, r1]
    27e8:	431a      	orrs	r2, r3
    27ea:	5042      	str	r2, [r0, r1]
    27ec:	0722      	lsls	r2, r4, #28
    27ee:	d505      	bpl.n	27fc <GDMA_INTConfig+0x88>
    27f0:	f240 3128 	movw	r1, #808	; 0x328
    27f4:	481c      	ldr	r0, [pc, #112]	; (2868 <GDMA_INTConfig+0xf4>)
    27f6:	5842      	ldr	r2, [r0, r1]
    27f8:	431a      	orrs	r2, r3
    27fa:	5042      	str	r2, [r0, r1]
    27fc:	06e2      	lsls	r2, r4, #27
    27fe:	d52f      	bpl.n	2860 <GDMA_INTConfig+0xec>
    2800:	f240 3130 	movw	r1, #816	; 0x330
    2804:	4818      	ldr	r0, [pc, #96]	; (2868 <GDMA_INTConfig+0xf4>)
    2806:	5842      	ldr	r2, [r0, r1]
    2808:	4313      	orrs	r3, r2
    280a:	5043      	str	r3, [r0, r1]
    280c:	e028      	b.n	2860 <GDMA_INTConfig+0xec>
    280e:	43db      	mvns	r3, r3
    2810:	4214      	tst	r4, r2
    2812:	d005      	beq.n	2820 <GDMA_INTConfig+0xac>
    2814:	f240 3110 	movw	r1, #784	; 0x310
    2818:	4813      	ldr	r0, [pc, #76]	; (2868 <GDMA_INTConfig+0xf4>)
    281a:	5842      	ldr	r2, [r0, r1]
    281c:	401a      	ands	r2, r3
    281e:	5042      	str	r2, [r0, r1]
    2820:	07a2      	lsls	r2, r4, #30
    2822:	d505      	bpl.n	2830 <GDMA_INTConfig+0xbc>
    2824:	f240 3118 	movw	r1, #792	; 0x318
    2828:	480f      	ldr	r0, [pc, #60]	; (2868 <GDMA_INTConfig+0xf4>)
    282a:	5842      	ldr	r2, [r0, r1]
    282c:	401a      	ands	r2, r3
    282e:	5042      	str	r2, [r0, r1]
    2830:	0762      	lsls	r2, r4, #29
    2832:	d505      	bpl.n	2840 <GDMA_INTConfig+0xcc>
    2834:	f240 3120 	movw	r1, #800	; 0x320
    2838:	480b      	ldr	r0, [pc, #44]	; (2868 <GDMA_INTConfig+0xf4>)
    283a:	5842      	ldr	r2, [r0, r1]
    283c:	401a      	ands	r2, r3
    283e:	5042      	str	r2, [r0, r1]
    2840:	0722      	lsls	r2, r4, #28
    2842:	d505      	bpl.n	2850 <GDMA_INTConfig+0xdc>
    2844:	f240 3128 	movw	r1, #808	; 0x328
    2848:	4807      	ldr	r0, [pc, #28]	; (2868 <GDMA_INTConfig+0xf4>)
    284a:	5842      	ldr	r2, [r0, r1]
    284c:	401a      	ands	r2, r3
    284e:	5042      	str	r2, [r0, r1]
    2850:	06e2      	lsls	r2, r4, #27
    2852:	d505      	bpl.n	2860 <GDMA_INTConfig+0xec>
    2854:	f240 3230 	movw	r2, #816	; 0x330
    2858:	4903      	ldr	r1, [pc, #12]	; (2868 <GDMA_INTConfig+0xf4>)
    285a:	5888      	ldr	r0, [r1, r2]
    285c:	4003      	ands	r3, r0
    285e:	508b      	str	r3, [r1, r2]
    2860:	bd70      	pop	{r4, r5, r6, pc}
    2862:	bf00      	nop
    2864:	00021712 	.word	0x00021712
    2868:	48010000 	.word	0x48010000

0000286c <GDMA_Cmd>:
    286c:	b570      	push	{r4, r5, r6, lr}
    286e:	000c      	movs	r4, r1
    2870:	0015      	movs	r5, r2
    2872:	b120      	cbz	r0, 287e <GDMA_Cmd+0x12>
    2874:	f240 11b4 	movw	r1, #436	; 0x1b4
    2878:	480d      	ldr	r0, [pc, #52]	; (28b0 <GDMA_Cmd+0x44>)
    287a:	f7fe fdb9 	bl	13f0 <io_assert_failed>
    287e:	2c03      	cmp	r4, #3
    2880:	d904      	bls.n	288c <GDMA_Cmd+0x20>
    2882:	f240 11b5 	movw	r1, #437	; 0x1b5
    2886:	480a      	ldr	r0, [pc, #40]	; (28b0 <GDMA_Cmd+0x44>)
    2888:	f7fe fdb2 	bl	13f0 <io_assert_failed>
    288c:	2301      	movs	r3, #1
    288e:	0022      	movs	r2, r4
    2890:	0019      	movs	r1, r3
    2892:	3208      	adds	r2, #8
    2894:	4091      	lsls	r1, r2
    2896:	000a      	movs	r2, r1
    2898:	429d      	cmp	r5, r3
    289a:	d102      	bne.n	28a2 <GDMA_Cmd+0x36>
    289c:	40a5      	lsls	r5, r4
    289e:	432a      	orrs	r2, r5
    28a0:	e001      	b.n	28a6 <GDMA_Cmd+0x3a>
    28a2:	40a3      	lsls	r3, r4
    28a4:	439a      	bics	r2, r3
    28a6:	f240 33a0 	movw	r3, #928	; 0x3a0
    28aa:	4902      	ldr	r1, [pc, #8]	; (28b4 <GDMA_Cmd+0x48>)
    28ac:	50ca      	str	r2, [r1, r3]
    28ae:	bd70      	pop	{r4, r5, r6, pc}
    28b0:	00021721 	.word	0x00021721
    28b4:	48010000 	.word	0x48010000

000028b8 <GDMA_Init>:
    28b8:	b5f7      	push	{r0, r1, r2, r4, r5, r6, r7, lr}
    28ba:	2601      	movs	r6, #1
    28bc:	000b      	movs	r3, r1
    28be:	0014      	movs	r4, r2
    28c0:	0032      	movs	r2, r6
    28c2:	3308      	adds	r3, #8
    28c4:	409a      	lsls	r2, r3
    28c6:	408e      	lsls	r6, r1
    28c8:	8d23      	ldrh	r3, [r4, #40]	; 0x28
    28ca:	0007      	movs	r7, r0
    28cc:	000d      	movs	r5, r1
    28ce:	4316      	orrs	r6, r2
    28d0:	9300      	str	r3, [sp, #0]
    28d2:	b118      	cbz	r0, 28dc <GDMA_Init+0x24>
    28d4:	2161      	movs	r1, #97	; 0x61
    28d6:	483b      	ldr	r0, [pc, #236]	; (29c4 <GDMA_Init+0x10c>)
    28d8:	f7fe fd8a 	bl	13f0 <io_assert_failed>
    28dc:	2d03      	cmp	r5, #3
    28de:	d903      	bls.n	28e8 <GDMA_Init+0x30>
    28e0:	2162      	movs	r1, #98	; 0x62
    28e2:	4838      	ldr	r0, [pc, #224]	; (29c4 <GDMA_Init+0x10c>)
    28e4:	f7fe fd84 	bl	13f0 <io_assert_failed>
    28e8:	2358      	movs	r3, #88	; 0x58
    28ea:	6d22      	ldr	r2, [r4, #80]	; 0x50
    28ec:	436b      	muls	r3, r5
    28ee:	b12a      	cbz	r2, 28fc <GDMA_Init+0x44>
    28f0:	2108      	movs	r1, #8
    28f2:	4a35      	ldr	r2, [pc, #212]	; (29c8 <GDMA_Init+0x110>)
    28f4:	189b      	adds	r3, r3, r2
    28f6:	6c5a      	ldr	r2, [r3, #68]	; 0x44
    28f8:	438a      	bics	r2, r1
    28fa:	e004      	b.n	2906 <GDMA_Init+0x4e>
    28fc:	2108      	movs	r1, #8
    28fe:	4a32      	ldr	r2, [pc, #200]	; (29c8 <GDMA_Init+0x110>)
    2900:	189b      	adds	r3, r3, r2
    2902:	6c5a      	ldr	r2, [r3, #68]	; 0x44
    2904:	430a      	orrs	r2, r1
    2906:	645a      	str	r2, [r3, #68]	; 0x44
    2908:	2101      	movs	r1, #1
    290a:	f240 3298 	movw	r2, #920	; 0x398
    290e:	4b2e      	ldr	r3, [pc, #184]	; (29c8 <GDMA_Init+0x110>)
    2910:	5099      	str	r1, [r3, r2]
    2912:	3208      	adds	r2, #8
    2914:	589a      	ldr	r2, [r3, r2]
    2916:	9301      	str	r3, [sp, #4]
    2918:	4232      	tst	r2, r6
    291a:	d00b      	beq.n	2934 <GDMA_Init+0x7c>
    291c:	4b2b      	ldr	r3, [pc, #172]	; (29cc <GDMA_Init+0x114>)
    291e:	685b      	ldr	r3, [r3, #4]
    2920:	075b      	lsls	r3, r3, #29
    2922:	d502      	bpl.n	292a <GDMA_Init+0x72>
    2924:	482a      	ldr	r0, [pc, #168]	; (29d0 <GDMA_Init+0x118>)
    2926:	f7fd fda5 	bl	474 <DiagPrintf>
    292a:	2200      	movs	r2, #0
    292c:	0029      	movs	r1, r5
    292e:	0038      	movs	r0, r7
    2930:	4b28      	ldr	r3, [pc, #160]	; (29d4 <GDMA_Init+0x11c>)
    2932:	4798      	blx	r3
    2934:	0029      	movs	r1, r5
    2936:	0038      	movs	r0, r7
    2938:	4b27      	ldr	r3, [pc, #156]	; (29d8 <GDMA_Init+0x120>)
    293a:	4798      	blx	r3
    293c:	2258      	movs	r2, #88	; 0x58
    293e:	436a      	muls	r2, r5
    2940:	9b01      	ldr	r3, [sp, #4]
    2942:	6a21      	ldr	r1, [r4, #32]
    2944:	5099      	str	r1, [r3, r2]
    2946:	4b20      	ldr	r3, [pc, #128]	; (29c8 <GDMA_Init+0x110>)
    2948:	18d2      	adds	r2, r2, r3
    294a:	6a63      	ldr	r3, [r4, #36]	; 0x24
    294c:	6093      	str	r3, [r2, #8]
    294e:	68a3      	ldr	r3, [r4, #8]
    2950:	68e1      	ldr	r1, [r4, #12]
    2952:	005b      	lsls	r3, r3, #1
    2954:	0109      	lsls	r1, r1, #4
    2956:	4319      	orrs	r1, r3
    2958:	2301      	movs	r3, #1
    295a:	6920      	ldr	r0, [r4, #16]
    295c:	4319      	orrs	r1, r3
    295e:	01c0      	lsls	r0, r0, #7
    2960:	4301      	orrs	r1, r0
    2962:	6960      	ldr	r0, [r4, #20]
    2964:	0240      	lsls	r0, r0, #9
    2966:	4301      	orrs	r1, r0
    2968:	69a0      	ldr	r0, [r4, #24]
    296a:	02c0      	lsls	r0, r0, #11
    296c:	4308      	orrs	r0, r1
    296e:	69e1      	ldr	r1, [r4, #28]
    2970:	0389      	lsls	r1, r1, #14
    2972:	4308      	orrs	r0, r1
    2974:	6861      	ldr	r1, [r4, #4]
    2976:	0509      	lsls	r1, r1, #20
    2978:	4301      	orrs	r1, r0
    297a:	6ba0      	ldr	r0, [r4, #56]	; 0x38
    297c:	06c0      	lsls	r0, r0, #27
    297e:	4301      	orrs	r1, r0
    2980:	6be0      	ldr	r0, [r4, #60]	; 0x3c
    2982:	0700      	lsls	r0, r0, #28
    2984:	4308      	orrs	r0, r1
    2986:	9900      	ldr	r1, [sp, #0]
    2988:	0509      	lsls	r1, r1, #20
    298a:	0d09      	lsrs	r1, r1, #20
    298c:	6190      	str	r0, [r2, #24]
    298e:	61d1      	str	r1, [r2, #28]
    2990:	6b21      	ldr	r1, [r4, #48]	; 0x30
    2992:	6b60      	ldr	r0, [r4, #52]	; 0x34
    2994:	0789      	lsls	r1, r1, #30
    2996:	07c0      	lsls	r0, r0, #31
    2998:	4308      	orrs	r0, r1
    299a:	6c51      	ldr	r1, [r2, #68]	; 0x44
    299c:	468c      	mov	ip, r1
    299e:	4663      	mov	r3, ip
    29a0:	6c21      	ldr	r1, [r4, #64]	; 0x40
    29a2:	01ce      	lsls	r6, r1, #7
    29a4:	490d      	ldr	r1, [pc, #52]	; (29dc <GDMA_Init+0x124>)
    29a6:	4019      	ands	r1, r3
    29a8:	6c63      	ldr	r3, [r4, #68]	; 0x44
    29aa:	4331      	orrs	r1, r6
    29ac:	02de      	lsls	r6, r3, #11
    29ae:	4331      	orrs	r1, r6
    29b0:	6410      	str	r0, [r2, #64]	; 0x40
    29b2:	6451      	str	r1, [r2, #68]	; 0x44
    29b4:	0038      	movs	r0, r7
    29b6:	6ae2      	ldr	r2, [r4, #44]	; 0x2c
    29b8:	0029      	movs	r1, r5
    29ba:	2301      	movs	r3, #1
    29bc:	4c08      	ldr	r4, [pc, #32]	; (29e0 <GDMA_Init+0x128>)
    29be:	47a0      	blx	r4
    29c0:	bdf7      	pop	{r0, r1, r2, r4, r5, r6, r7, pc}
    29c2:	bf00      	nop
    29c4:	0002174a 	.word	0x0002174a
    29c8:	48010000 	.word	0x48010000
    29cc:	000801cc 	.word	0x000801cc
    29d0:	00020ece 	.word	0x00020ece
    29d4:	0000286d 	.word	0x0000286d
    29d8:	000026ad 	.word	0x000026ad
    29dc:	ffff807f 	.word	0xffff807f
    29e0:	00002775 	.word	0x00002775

000029e4 <GDMA_ChCleanAutoReload>:
    29e4:	b570      	push	{r4, r5, r6, lr}
    29e6:	000c      	movs	r4, r1
    29e8:	0015      	movs	r5, r2
    29ea:	b120      	cbz	r0, 29f6 <GDMA_ChCleanAutoReload+0x12>
    29ec:	f240 11d9 	movw	r1, #473	; 0x1d9
    29f0:	4810      	ldr	r0, [pc, #64]	; (2a34 <GDMA_ChCleanAutoReload+0x50>)
    29f2:	f7fe fcfd 	bl	13f0 <io_assert_failed>
    29f6:	2c03      	cmp	r4, #3
    29f8:	d904      	bls.n	2a04 <GDMA_ChCleanAutoReload+0x20>
    29fa:	f240 11da 	movw	r1, #474	; 0x1da
    29fe:	480d      	ldr	r0, [pc, #52]	; (2a34 <GDMA_ChCleanAutoReload+0x50>)
    2a00:	f7fe fcf6 	bl	13f0 <io_assert_failed>
    2a04:	2258      	movs	r2, #88	; 0x58
    2a06:	0013      	movs	r3, r2
    2a08:	4363      	muls	r3, r4
    2a0a:	490b      	ldr	r1, [pc, #44]	; (2a38 <GDMA_ChCleanAutoReload+0x54>)
    2a0c:	185b      	adds	r3, r3, r1
    2a0e:	6c1b      	ldr	r3, [r3, #64]	; 0x40
    2a10:	2d01      	cmp	r5, #1
    2a12:	d102      	bne.n	2a1a <GDMA_ChCleanAutoReload+0x36>
    2a14:	4909      	ldr	r1, [pc, #36]	; (2a3c <GDMA_ChCleanAutoReload+0x58>)
    2a16:	400b      	ands	r3, r1
    2a18:	e006      	b.n	2a28 <GDMA_ChCleanAutoReload+0x44>
    2a1a:	2d02      	cmp	r5, #2
    2a1c:	d102      	bne.n	2a24 <GDMA_ChCleanAutoReload+0x40>
    2a1e:	005b      	lsls	r3, r3, #1
    2a20:	085b      	lsrs	r3, r3, #1
    2a22:	e001      	b.n	2a28 <GDMA_ChCleanAutoReload+0x44>
    2a24:	009b      	lsls	r3, r3, #2
    2a26:	089b      	lsrs	r3, r3, #2
    2a28:	4354      	muls	r4, r2
    2a2a:	4a03      	ldr	r2, [pc, #12]	; (2a38 <GDMA_ChCleanAutoReload+0x54>)
    2a2c:	18a4      	adds	r4, r4, r2
    2a2e:	6423      	str	r3, [r4, #64]	; 0x40
    2a30:	bd70      	pop	{r4, r5, r6, pc}
    2a32:	bf00      	nop
    2a34:	000216fb 	.word	0x000216fb
    2a38:	48010000 	.word	0x48010000
    2a3c:	bfffffff 	.word	0xbfffffff

00002a40 <GDMA_SetSrcAddr>:
    2a40:	b570      	push	{r4, r5, r6, lr}
    2a42:	000c      	movs	r4, r1
    2a44:	0015      	movs	r5, r2
    2a46:	b120      	cbz	r0, 2a52 <GDMA_SetSrcAddr+0x12>
    2a48:	f240 11fb 	movw	r1, #507	; 0x1fb
    2a4c:	4807      	ldr	r0, [pc, #28]	; (2a6c <GDMA_SetSrcAddr+0x2c>)
    2a4e:	f7fe fccf 	bl	13f0 <io_assert_failed>
    2a52:	2c03      	cmp	r4, #3
    2a54:	d904      	bls.n	2a60 <GDMA_SetSrcAddr+0x20>
    2a56:	f240 11fc 	movw	r1, #508	; 0x1fc
    2a5a:	4804      	ldr	r0, [pc, #16]	; (2a6c <GDMA_SetSrcAddr+0x2c>)
    2a5c:	f7fe fcc8 	bl	13f0 <io_assert_failed>
    2a60:	2158      	movs	r1, #88	; 0x58
    2a62:	4361      	muls	r1, r4
    2a64:	4b02      	ldr	r3, [pc, #8]	; (2a70 <GDMA_SetSrcAddr+0x30>)
    2a66:	50cd      	str	r5, [r1, r3]
    2a68:	bd70      	pop	{r4, r5, r6, pc}
    2a6a:	bf00      	nop
    2a6c:	00021768 	.word	0x00021768
    2a70:	48010000 	.word	0x48010000

00002a74 <GDMA_GetSrcAddr>:
    2a74:	b510      	push	{r4, lr}
    2a76:	000c      	movs	r4, r1
    2a78:	b120      	cbz	r0, 2a84 <GDMA_GetSrcAddr+0x10>
    2a7a:	f240 2111 	movw	r1, #529	; 0x211
    2a7e:	4807      	ldr	r0, [pc, #28]	; (2a9c <GDMA_GetSrcAddr+0x28>)
    2a80:	f7fe fcb6 	bl	13f0 <io_assert_failed>
    2a84:	2c03      	cmp	r4, #3
    2a86:	d904      	bls.n	2a92 <GDMA_GetSrcAddr+0x1e>
    2a88:	f240 2112 	movw	r1, #530	; 0x212
    2a8c:	4803      	ldr	r0, [pc, #12]	; (2a9c <GDMA_GetSrcAddr+0x28>)
    2a8e:	f7fe fcaf 	bl	13f0 <io_assert_failed>
    2a92:	2158      	movs	r1, #88	; 0x58
    2a94:	4361      	muls	r1, r4
    2a96:	4b02      	ldr	r3, [pc, #8]	; (2aa0 <GDMA_GetSrcAddr+0x2c>)
    2a98:	58c8      	ldr	r0, [r1, r3]
    2a9a:	bd10      	pop	{r4, pc}
    2a9c:	00021778 	.word	0x00021778
    2aa0:	48010000 	.word	0x48010000

00002aa4 <GDMA_GetDstAddr>:
    2aa4:	b510      	push	{r4, lr}
    2aa6:	000c      	movs	r4, r1
    2aa8:	b120      	cbz	r0, 2ab4 <GDMA_GetDstAddr+0x10>
    2aaa:	f240 2127 	movw	r1, #551	; 0x227
    2aae:	4808      	ldr	r0, [pc, #32]	; (2ad0 <GDMA_GetDstAddr+0x2c>)
    2ab0:	f7fe fc9e 	bl	13f0 <io_assert_failed>
    2ab4:	2c03      	cmp	r4, #3
    2ab6:	d904      	bls.n	2ac2 <GDMA_GetDstAddr+0x1e>
    2ab8:	f240 2128 	movw	r1, #552	; 0x228
    2abc:	4804      	ldr	r0, [pc, #16]	; (2ad0 <GDMA_GetDstAddr+0x2c>)
    2abe:	f7fe fc97 	bl	13f0 <io_assert_failed>
    2ac2:	2158      	movs	r1, #88	; 0x58
    2ac4:	4361      	muls	r1, r4
    2ac6:	4b03      	ldr	r3, [pc, #12]	; (2ad4 <GDMA_GetDstAddr+0x30>)
    2ac8:	18c9      	adds	r1, r1, r3
    2aca:	6888      	ldr	r0, [r1, #8]
    2acc:	bd10      	pop	{r4, pc}
    2ace:	bf00      	nop
    2ad0:	000217a3 	.word	0x000217a3
    2ad4:	48010000 	.word	0x48010000

00002ad8 <GDMA_SetDstAddr>:
    2ad8:	b570      	push	{r4, r5, r6, lr}
    2ada:	000d      	movs	r5, r1
    2adc:	0014      	movs	r4, r2
    2ade:	b120      	cbz	r0, 2aea <GDMA_SetDstAddr+0x12>
    2ae0:	f240 213e 	movw	r1, #574	; 0x23e
    2ae4:	4807      	ldr	r0, [pc, #28]	; (2b04 <GDMA_SetDstAddr+0x2c>)
    2ae6:	f7fe fc83 	bl	13f0 <io_assert_failed>
    2aea:	2d03      	cmp	r5, #3
    2aec:	d904      	bls.n	2af8 <GDMA_SetDstAddr+0x20>
    2aee:	f240 213f 	movw	r1, #575	; 0x23f
    2af2:	4804      	ldr	r0, [pc, #16]	; (2b04 <GDMA_SetDstAddr+0x2c>)
    2af4:	f7fe fc7c 	bl	13f0 <io_assert_failed>
    2af8:	2158      	movs	r1, #88	; 0x58
    2afa:	4369      	muls	r1, r5
    2afc:	4b02      	ldr	r3, [pc, #8]	; (2b08 <GDMA_SetDstAddr+0x30>)
    2afe:	18c9      	adds	r1, r1, r3
    2b00:	608c      	str	r4, [r1, #8]
    2b02:	bd70      	pop	{r4, r5, r6, pc}
    2b04:	000217c1 	.word	0x000217c1
    2b08:	48010000 	.word	0x48010000

00002b0c <GDMA_SetBlkSize>:
    2b0c:	b570      	push	{r4, r5, r6, lr}
    2b0e:	000d      	movs	r5, r1
    2b10:	0014      	movs	r4, r2
    2b12:	b120      	cbz	r0, 2b1e <GDMA_SetBlkSize+0x12>
    2b14:	f240 2156 	movw	r1, #598	; 0x256
    2b18:	480a      	ldr	r0, [pc, #40]	; (2b44 <GDMA_SetBlkSize+0x38>)
    2b1a:	f7fe fc69 	bl	13f0 <io_assert_failed>
    2b1e:	2d03      	cmp	r5, #3
    2b20:	d904      	bls.n	2b2c <GDMA_SetBlkSize+0x20>
    2b22:	f240 2157 	movw	r1, #599	; 0x257
    2b26:	4807      	ldr	r0, [pc, #28]	; (2b44 <GDMA_SetBlkSize+0x38>)
    2b28:	f7fe fc62 	bl	13f0 <io_assert_failed>
    2b2c:	2158      	movs	r1, #88	; 0x58
    2b2e:	4369      	muls	r1, r5
    2b30:	4b05      	ldr	r3, [pc, #20]	; (2b48 <GDMA_SetBlkSize+0x3c>)
    2b32:	18c9      	adds	r1, r1, r3
    2b34:	69ca      	ldr	r2, [r1, #28]
    2b36:	0524      	lsls	r4, r4, #20
    2b38:	0b12      	lsrs	r2, r2, #12
    2b3a:	0d24      	lsrs	r4, r4, #20
    2b3c:	0312      	lsls	r2, r2, #12
    2b3e:	4322      	orrs	r2, r4
    2b40:	61ca      	str	r2, [r1, #28]
    2b42:	bd70      	pop	{r4, r5, r6, pc}
    2b44:	0002173a 	.word	0x0002173a
    2b48:	48010000 	.word	0x48010000

00002b4c <GDMA_GetBlkSize>:
    2b4c:	b510      	push	{r4, lr}
    2b4e:	000c      	movs	r4, r1
    2b50:	b120      	cbz	r0, 2b5c <GDMA_GetBlkSize+0x10>
    2b52:	f240 2172 	movw	r1, #626	; 0x272
    2b56:	4809      	ldr	r0, [pc, #36]	; (2b7c <GDMA_GetBlkSize+0x30>)
    2b58:	f7fe fc4a 	bl	13f0 <io_assert_failed>
    2b5c:	2c03      	cmp	r4, #3
    2b5e:	d904      	bls.n	2b6a <GDMA_GetBlkSize+0x1e>
    2b60:	f240 2173 	movw	r1, #627	; 0x273
    2b64:	4805      	ldr	r0, [pc, #20]	; (2b7c <GDMA_GetBlkSize+0x30>)
    2b66:	f7fe fc43 	bl	13f0 <io_assert_failed>
    2b6a:	2158      	movs	r1, #88	; 0x58
    2b6c:	4361      	muls	r1, r4
    2b6e:	4b04      	ldr	r3, [pc, #16]	; (2b80 <GDMA_GetBlkSize+0x34>)
    2b70:	18c9      	adds	r1, r1, r3
    2b72:	69c8      	ldr	r0, [r1, #28]
    2b74:	0500      	lsls	r0, r0, #20
    2b76:	0d00      	lsrs	r0, r0, #20
    2b78:	bd10      	pop	{r4, pc}
    2b7a:	bf00      	nop
    2b7c:	0002172a 	.word	0x0002172a
    2b80:	48010000 	.word	0x48010000

00002b84 <GDMA_ChnlRegister>:
    2b84:	b570      	push	{r4, r5, r6, lr}
    2b86:	0004      	movs	r4, r0
    2b88:	000d      	movs	r5, r1
    2b8a:	b120      	cbz	r0, 2b96 <GDMA_ChnlRegister+0x12>
    2b8c:	f240 2185 	movw	r1, #645	; 0x285
    2b90:	480b      	ldr	r0, [pc, #44]	; (2bc0 <GDMA_ChnlRegister+0x3c>)
    2b92:	f7fe fc2d 	bl	13f0 <io_assert_failed>
    2b96:	2d03      	cmp	r5, #3
    2b98:	d904      	bls.n	2ba4 <GDMA_ChnlRegister+0x20>
    2b9a:	f240 2186 	movw	r1, #646	; 0x286
    2b9e:	4808      	ldr	r0, [pc, #32]	; (2bc0 <GDMA_ChnlRegister+0x3c>)
    2ba0:	f7fe fc26 	bl	13f0 <io_assert_failed>
    2ba4:	4907      	ldr	r1, [pc, #28]	; (2bc4 <GDMA_ChnlRegister+0x40>)
    2ba6:	5d0b      	ldrb	r3, [r1, r4]
    2ba8:	001e      	movs	r6, r3
    2baa:	2201      	movs	r2, #1
    2bac:	412e      	asrs	r6, r5
    2bae:	2000      	movs	r0, #0
    2bb0:	4216      	tst	r6, r2
    2bb2:	d104      	bne.n	2bbe <GDMA_ChnlRegister+0x3a>
    2bb4:	0010      	movs	r0, r2
    2bb6:	40a8      	lsls	r0, r5
    2bb8:	4303      	orrs	r3, r0
    2bba:	0010      	movs	r0, r2
    2bbc:	550b      	strb	r3, [r1, r4]
    2bbe:	bd70      	pop	{r4, r5, r6, pc}
    2bc0:	000216e9 	.word	0x000216e9
    2bc4:	00080258 	.word	0x00080258

00002bc8 <GDMA_ChnlUnRegister>:
    2bc8:	b570      	push	{r4, r5, r6, lr}
    2bca:	0004      	movs	r4, r0
    2bcc:	000d      	movs	r5, r1
    2bce:	b120      	cbz	r0, 2bda <GDMA_ChnlUnRegister+0x12>
    2bd0:	f240 2199 	movw	r1, #665	; 0x299
    2bd4:	4808      	ldr	r0, [pc, #32]	; (2bf8 <GDMA_ChnlUnRegister+0x30>)
    2bd6:	f7fe fc0b 	bl	13f0 <io_assert_failed>
    2bda:	2d03      	cmp	r5, #3
    2bdc:	d904      	bls.n	2be8 <GDMA_ChnlUnRegister+0x20>
    2bde:	f240 219a 	movw	r1, #666	; 0x29a
    2be2:	4805      	ldr	r0, [pc, #20]	; (2bf8 <GDMA_ChnlUnRegister+0x30>)
    2be4:	f7fe fc04 	bl	13f0 <io_assert_failed>
    2be8:	2201      	movs	r2, #1
    2bea:	40aa      	lsls	r2, r5
    2bec:	4903      	ldr	r1, [pc, #12]	; (2bfc <GDMA_ChnlUnRegister+0x34>)
    2bee:	5d0b      	ldrb	r3, [r1, r4]
    2bf0:	4393      	bics	r3, r2
    2bf2:	550b      	strb	r3, [r1, r4]
    2bf4:	bd70      	pop	{r4, r5, r6, pc}
    2bf6:	bf00      	nop
    2bf8:	00021754 	.word	0x00021754
    2bfc:	00080258 	.word	0x00080258

00002c00 <GDMA_ChnlAlloc>:
    2c00:	b5f0      	push	{r4, r5, r6, r7, lr}
    2c02:	b085      	sub	sp, #20
    2c04:	9303      	str	r3, [sp, #12]
    2c06:	4b18      	ldr	r3, [pc, #96]	; (2c68 <GDMA_ChnlAlloc+0x68>)
    2c08:	691b      	ldr	r3, [r3, #16]
    2c0a:	0005      	movs	r5, r0
    2c0c:	000f      	movs	r7, r1
    2c0e:	9202      	str	r2, [sp, #8]
    2c10:	9301      	str	r3, [sp, #4]
    2c12:	b120      	cbz	r0, 2c1e <GDMA_ChnlAlloc+0x1e>
    2c14:	f240 21b3 	movw	r1, #691	; 0x2b3
    2c18:	4814      	ldr	r0, [pc, #80]	; (2c6c <GDMA_ChnlAlloc+0x6c>)
    2c1a:	f7fe fbe9 	bl	13f0 <io_assert_failed>
    2c1e:	2400      	movs	r4, #0
    2c20:	2201      	movs	r2, #1
    2c22:	4b13      	ldr	r3, [pc, #76]	; (2c70 <GDMA_ChnlAlloc+0x70>)
    2c24:	5d5b      	ldrb	r3, [r3, r5]
    2c26:	0019      	movs	r1, r3
    2c28:	4121      	asrs	r1, r4
    2c2a:	4211      	tst	r1, r2
    2c2c:	d004      	beq.n	2c38 <GDMA_ChnlAlloc+0x38>
    2c2e:	3401      	adds	r4, #1
    2c30:	2c04      	cmp	r4, #4
    2c32:	d1f8      	bne.n	2c26 <GDMA_ChnlAlloc+0x26>
    2c34:	26ff      	movs	r6, #255	; 0xff
    2c36:	e014      	b.n	2c62 <GDMA_ChnlAlloc+0x62>
    2c38:	b2e6      	uxtb	r6, r4
    2c3a:	b2e8      	uxtb	r0, r5
    2c3c:	0031      	movs	r1, r6
    2c3e:	4b0d      	ldr	r3, [pc, #52]	; (2c74 <GDMA_ChnlAlloc+0x74>)
    2c40:	4798      	blx	r3
    2c42:	466b      	mov	r3, sp
    2c44:	791a      	ldrb	r2, [r3, #4]
    2c46:	2306      	movs	r3, #6
    2c48:	4353      	muls	r3, r2
    2c4a:	4a0b      	ldr	r2, [pc, #44]	; (2c78 <GDMA_ChnlAlloc+0x78>)
    2c4c:	18d3      	adds	r3, r2, r3
    2c4e:	5d1c      	ldrb	r4, [r3, r4]
    2c50:	9a02      	ldr	r2, [sp, #8]
    2c52:	9b03      	ldr	r3, [sp, #12]
    2c54:	0021      	movs	r1, r4
    2c56:	0038      	movs	r0, r7
    2c58:	4d08      	ldr	r5, [pc, #32]	; (2c7c <GDMA_ChnlAlloc+0x7c>)
    2c5a:	47a8      	blx	r5
    2c5c:	0020      	movs	r0, r4
    2c5e:	4b08      	ldr	r3, [pc, #32]	; (2c80 <GDMA_ChnlAlloc+0x80>)
    2c60:	4798      	blx	r3
    2c62:	0030      	movs	r0, r6
    2c64:	b005      	add	sp, #20
    2c66:	bdf0      	pop	{r4, r5, r6, r7, pc}
    2c68:	48006000 	.word	0x48006000
    2c6c:	00021794 	.word	0x00021794
    2c70:	00080258 	.word	0x00080258
    2c74:	00002b85 	.word	0x00002b85
    2c78:	0002006c 	.word	0x0002006c
    2c7c:	00005699 	.word	0x00005699
    2c80:	00005559 	.word	0x00005559

00002c84 <GDMA_ChnlFree>:
    2c84:	4b11      	ldr	r3, [pc, #68]	; (2ccc <GDMA_ChnlFree+0x48>)
    2c86:	b570      	push	{r4, r5, r6, lr}
    2c88:	0005      	movs	r5, r0
    2c8a:	000c      	movs	r4, r1
    2c8c:	691e      	ldr	r6, [r3, #16]
    2c8e:	b120      	cbz	r0, 2c9a <GDMA_ChnlFree+0x16>
    2c90:	f240 21d8 	movw	r1, #728	; 0x2d8
    2c94:	480e      	ldr	r0, [pc, #56]	; (2cd0 <GDMA_ChnlFree+0x4c>)
    2c96:	f7fe fbab 	bl	13f0 <io_assert_failed>
    2c9a:	2c03      	cmp	r4, #3
    2c9c:	d904      	bls.n	2ca8 <GDMA_ChnlFree+0x24>
    2c9e:	f240 21d9 	movw	r1, #729	; 0x2d9
    2ca2:	480b      	ldr	r0, [pc, #44]	; (2cd0 <GDMA_ChnlFree+0x4c>)
    2ca4:	f7fe fba4 	bl	13f0 <io_assert_failed>
    2ca8:	2306      	movs	r3, #6
    2caa:	b2f6      	uxtb	r6, r6
    2cac:	4373      	muls	r3, r6
    2cae:	4a09      	ldr	r2, [pc, #36]	; (2cd4 <GDMA_ChnlFree+0x50>)
    2cb0:	18d3      	adds	r3, r2, r3
    2cb2:	5d1e      	ldrb	r6, [r3, r4]
    2cb4:	4b08      	ldr	r3, [pc, #32]	; (2cd8 <GDMA_ChnlFree+0x54>)
    2cb6:	0030      	movs	r0, r6
    2cb8:	4798      	blx	r3
    2cba:	0030      	movs	r0, r6
    2cbc:	4b07      	ldr	r3, [pc, #28]	; (2cdc <GDMA_ChnlFree+0x58>)
    2cbe:	4798      	blx	r3
    2cc0:	0028      	movs	r0, r5
    2cc2:	0021      	movs	r1, r4
    2cc4:	4b06      	ldr	r3, [pc, #24]	; (2ce0 <GDMA_ChnlFree+0x5c>)
    2cc6:	4798      	blx	r3
    2cc8:	bd70      	pop	{r4, r5, r6, pc}
    2cca:	bf00      	nop
    2ccc:	48006000 	.word	0x48006000
    2cd0:	000217b3 	.word	0x000217b3
    2cd4:	0002006c 	.word	0x0002006c
    2cd8:	00005575 	.word	0x00005575
    2cdc:	00005711 	.word	0x00005711
    2ce0:	00002bc9 	.word	0x00002bc9

00002ce4 <GDMA_GetIrqNum>:
    2ce4:	4b08      	ldr	r3, [pc, #32]	; (2d08 <GDMA_GetIrqNum+0x24>)
    2ce6:	b570      	push	{r4, r5, r6, lr}
    2ce8:	000c      	movs	r4, r1
    2cea:	691d      	ldr	r5, [r3, #16]
    2cec:	b120      	cbz	r0, 2cf8 <GDMA_GetIrqNum+0x14>
    2cee:	f240 21f8 	movw	r1, #760	; 0x2f8
    2cf2:	4806      	ldr	r0, [pc, #24]	; (2d0c <GDMA_GetIrqNum+0x28>)
    2cf4:	f7fe fb7c 	bl	13f0 <io_assert_failed>
    2cf8:	2306      	movs	r3, #6
    2cfa:	b2ed      	uxtb	r5, r5
    2cfc:	436b      	muls	r3, r5
    2cfe:	4a04      	ldr	r2, [pc, #16]	; (2d10 <GDMA_GetIrqNum+0x2c>)
    2d00:	18d3      	adds	r3, r2, r3
    2d02:	5d18      	ldrb	r0, [r3, r4]
    2d04:	bd70      	pop	{r4, r5, r6, pc}
    2d06:	bf00      	nop
    2d08:	48006000 	.word	0x48006000
    2d0c:	000216cc 	.word	0x000216cc
    2d10:	0002006c 	.word	0x0002006c

00002d14 <GPIO_INTMode>:
    2d14:	b5f7      	push	{r0, r1, r2, r4, r5, r6, r7, lr}
    2d16:	0004      	movs	r4, r0
    2d18:	251f      	movs	r5, #31
    2d1a:	0664      	lsls	r4, r4, #25
    2d1c:	9301      	str	r3, [sp, #4]
    2d1e:	0fa4      	lsrs	r4, r4, #30
    2d20:	4b1d      	ldr	r3, [pc, #116]	; (2d98 <GPIO_INTMode+0x84>)
    2d22:	b2c0      	uxtb	r0, r0
    2d24:	00a4      	lsls	r4, r4, #2
    2d26:	000e      	movs	r6, r1
    2d28:	0017      	movs	r7, r2
    2d2a:	4005      	ands	r5, r0
    2d2c:	58e4      	ldr	r4, [r4, r3]
    2d2e:	2901      	cmp	r1, #1
    2d30:	d125      	bne.n	2d7e <GPIO_INTMode+0x6a>
    2d32:	9a01      	ldr	r2, [sp, #4]
    2d34:	4b19      	ldr	r3, [pc, #100]	; (2d9c <GPIO_INTMode+0x88>)
    2d36:	2102      	movs	r1, #2
    2d38:	b102      	cbz	r2, 2d3c <GPIO_INTMode+0x28>
    2d3a:	0031      	movs	r1, r6
    2d3c:	4798      	blx	r3
    2d3e:	2301      	movs	r3, #1
    2d40:	6ea2      	ldr	r2, [r4, #104]	; 0x68
    2d42:	40ab      	lsls	r3, r5
    2d44:	2f02      	cmp	r7, #2
    2d46:	d008      	beq.n	2d5a <GPIO_INTMode+0x46>
    2d48:	43db      	mvns	r3, r3
    2d4a:	40af      	lsls	r7, r5
    2d4c:	401a      	ands	r2, r3
    2d4e:	66a2      	str	r2, [r4, #104]	; 0x68
    2d50:	6ba2      	ldr	r2, [r4, #56]	; 0x38
    2d52:	4013      	ands	r3, r2
    2d54:	433b      	orrs	r3, r7
    2d56:	63a3      	str	r3, [r4, #56]	; 0x38
    2d58:	e001      	b.n	2d5e <GPIO_INTMode+0x4a>
    2d5a:	4313      	orrs	r3, r2
    2d5c:	66a3      	str	r3, [r4, #104]	; 0x68
    2d5e:	2101      	movs	r1, #1
    2d60:	40a9      	lsls	r1, r5
    2d62:	9801      	ldr	r0, [sp, #4]
    2d64:	43cb      	mvns	r3, r1
    2d66:	40a8      	lsls	r0, r5
    2d68:	6be2      	ldr	r2, [r4, #60]	; 0x3c
    2d6a:	401a      	ands	r2, r3
    2d6c:	4302      	orrs	r2, r0
    2d6e:	63e2      	str	r2, [r4, #60]	; 0x3c
    2d70:	6ca2      	ldr	r2, [r4, #72]	; 0x48
    2d72:	4013      	ands	r3, r2
    2d74:	9a08      	ldr	r2, [sp, #32]
    2d76:	2a01      	cmp	r2, #1
    2d78:	d100      	bne.n	2d7c <GPIO_INTMode+0x68>
    2d7a:	430b      	orrs	r3, r1
    2d7c:	64a3      	str	r3, [r4, #72]	; 0x48
    2d7e:	6b23      	ldr	r3, [r4, #48]	; 0x30
    2d80:	2e01      	cmp	r6, #1
    2d82:	d102      	bne.n	2d8a <GPIO_INTMode+0x76>
    2d84:	40ae      	lsls	r6, r5
    2d86:	431e      	orrs	r6, r3
    2d88:	e003      	b.n	2d92 <GPIO_INTMode+0x7e>
    2d8a:	2201      	movs	r2, #1
    2d8c:	40aa      	lsls	r2, r5
    2d8e:	4393      	bics	r3, r2
    2d90:	001e      	movs	r6, r3
    2d92:	6326      	str	r6, [r4, #48]	; 0x30
    2d94:	bdf7      	pop	{r0, r1, r2, r4, r5, r6, r7, pc}
    2d96:	bf00      	nop
    2d98:	00020080 	.word	0x00020080
    2d9c:	00003685 	.word	0x00003685

00002da0 <GPIO_INTConfig>:
    2da0:	0643      	lsls	r3, r0, #25
    2da2:	0f9b      	lsrs	r3, r3, #30
    2da4:	4a08      	ldr	r2, [pc, #32]	; (2dc8 <GPIO_INTConfig+0x28>)
    2da6:	009b      	lsls	r3, r3, #2
    2da8:	589a      	ldr	r2, [r3, r2]
    2daa:	231f      	movs	r3, #31
    2dac:	4018      	ands	r0, r3
    2dae:	3b1e      	subs	r3, #30
    2db0:	4083      	lsls	r3, r0
    2db2:	b510      	push	{r4, lr}
    2db4:	64d3      	str	r3, [r2, #76]	; 0x4c
    2db6:	6b54      	ldr	r4, [r2, #52]	; 0x34
    2db8:	0020      	movs	r0, r4
    2dba:	4398      	bics	r0, r3
    2dbc:	b909      	cbnz	r1, 2dc2 <GPIO_INTConfig+0x22>
    2dbe:	4323      	orrs	r3, r4
    2dc0:	0018      	movs	r0, r3
    2dc2:	6350      	str	r0, [r2, #52]	; 0x34
    2dc4:	bd10      	pop	{r4, pc}
    2dc6:	bf00      	nop
    2dc8:	00020080 	.word	0x00020080

00002dcc <GPIO_INTHandler>:
    2dcc:	b5f7      	push	{r0, r1, r2, r4, r5, r6, r7, lr}
    2dce:	6d03      	ldr	r3, [r0, #80]	; 0x50
    2dd0:	9301      	str	r3, [sp, #4]
    2dd2:	6c03      	ldr	r3, [r0, #64]	; 0x40
    2dd4:	9300      	str	r3, [sp, #0]
    2dd6:	4b1f      	ldr	r3, [pc, #124]	; (2e54 <GPIO_INTHandler+0x88>)
    2dd8:	0005      	movs	r5, r0
    2dda:	2400      	movs	r4, #0
    2ddc:	2701      	movs	r7, #1
    2dde:	4298      	cmp	r0, r3
    2de0:	d121      	bne.n	2e26 <GPIO_INTHandler+0x5a>
    2de2:	2301      	movs	r3, #1
    2de4:	40a3      	lsls	r3, r4
    2de6:	9a00      	ldr	r2, [sp, #0]
    2de8:	469c      	mov	ip, r3
    2dea:	4213      	tst	r3, r2
    2dec:	d010      	beq.n	2e10 <GPIO_INTHandler+0x44>
    2dee:	4b1a      	ldr	r3, [pc, #104]	; (2e58 <GPIO_INTHandler+0x8c>)
    2df0:	00a2      	lsls	r2, r4, #2
    2df2:	58d3      	ldr	r3, [r2, r3]
    2df4:	b163      	cbz	r3, 2e10 <GPIO_INTHandler+0x44>
    2df6:	2102      	movs	r1, #2
    2df8:	4666      	mov	r6, ip
    2dfa:	9f01      	ldr	r7, [sp, #4]
    2dfc:	0420      	lsls	r0, r4, #16
    2dfe:	4301      	orrs	r1, r0
    2e00:	423e      	tst	r6, r7
    2e02:	d002      	beq.n	2e0a <GPIO_INTHandler+0x3e>
    2e04:	0001      	movs	r1, r0
    2e06:	2001      	movs	r0, #1
    2e08:	4301      	orrs	r1, r0
    2e0a:	4814      	ldr	r0, [pc, #80]	; (2e5c <GPIO_INTHandler+0x90>)
    2e0c:	5810      	ldr	r0, [r2, r0]
    2e0e:	4798      	blx	r3
    2e10:	3401      	adds	r4, #1
    2e12:	2c20      	cmp	r4, #32
    2e14:	d1e5      	bne.n	2de2 <GPIO_INTHandler+0x16>
    2e16:	e018      	b.n	2e4a <GPIO_INTHandler+0x7e>
    2e18:	4b11      	ldr	r3, [pc, #68]	; (2e60 <GPIO_INTHandler+0x94>)
    2e1a:	00a2      	lsls	r2, r4, #2
    2e1c:	58d3      	ldr	r3, [r2, r3]
    2e1e:	b943      	cbnz	r3, 2e32 <GPIO_INTHandler+0x66>
    2e20:	3401      	adds	r4, #1
    2e22:	2c20      	cmp	r4, #32
    2e24:	d011      	beq.n	2e4a <GPIO_INTHandler+0x7e>
    2e26:	0038      	movs	r0, r7
    2e28:	40a0      	lsls	r0, r4
    2e2a:	9b00      	ldr	r3, [sp, #0]
    2e2c:	4218      	tst	r0, r3
    2e2e:	d0f7      	beq.n	2e20 <GPIO_INTHandler+0x54>
    2e30:	e7f2      	b.n	2e18 <GPIO_INTHandler+0x4c>
    2e32:	9e01      	ldr	r6, [sp, #4]
    2e34:	0421      	lsls	r1, r4, #16
    2e36:	4230      	tst	r0, r6
    2e38:	d001      	beq.n	2e3e <GPIO_INTHandler+0x72>
    2e3a:	480a      	ldr	r0, [pc, #40]	; (2e64 <GPIO_INTHandler+0x98>)
    2e3c:	e000      	b.n	2e40 <GPIO_INTHandler+0x74>
    2e3e:	480a      	ldr	r0, [pc, #40]	; (2e68 <GPIO_INTHandler+0x9c>)
    2e40:	4301      	orrs	r1, r0
    2e42:	480a      	ldr	r0, [pc, #40]	; (2e6c <GPIO_INTHandler+0xa0>)
    2e44:	5810      	ldr	r0, [r2, r0]
    2e46:	4798      	blx	r3
    2e48:	e7ea      	b.n	2e20 <GPIO_INTHandler+0x54>
    2e4a:	9b00      	ldr	r3, [sp, #0]
    2e4c:	2000      	movs	r0, #0
    2e4e:	64eb      	str	r3, [r5, #76]	; 0x4c
    2e50:	bdfe      	pop	{r1, r2, r3, r4, r5, r6, r7, pc}
    2e52:	bf00      	nop
    2e54:	48014000 	.word	0x48014000
    2e58:	0008025c 	.word	0x0008025c
    2e5c:	000802dc 	.word	0x000802dc
    2e60:	0008035c 	.word	0x0008035c
    2e64:	00200001 	.word	0x00200001
    2e68:	00200002 	.word	0x00200002
    2e6c:	000803dc 	.word	0x000803dc

00002e70 <GPIO_Direction>:
    2e70:	b510      	push	{r4, lr}
    2e72:	241f      	movs	r4, #31
    2e74:	4004      	ands	r4, r0
    2e76:	0640      	lsls	r0, r0, #25
    2e78:	4b07      	ldr	r3, [pc, #28]	; (2e98 <GPIO_Direction+0x28>)
    2e7a:	0f80      	lsrs	r0, r0, #30
    2e7c:	0080      	lsls	r0, r0, #2
    2e7e:	58c2      	ldr	r2, [r0, r3]
    2e80:	2301      	movs	r3, #1
    2e82:	b921      	cbnz	r1, 2e8e <GPIO_Direction+0x1e>
    2e84:	40a3      	lsls	r3, r4
    2e86:	6851      	ldr	r1, [r2, #4]
    2e88:	4399      	bics	r1, r3
    2e8a:	000b      	movs	r3, r1
    2e8c:	e002      	b.n	2e94 <GPIO_Direction+0x24>
    2e8e:	40a3      	lsls	r3, r4
    2e90:	6851      	ldr	r1, [r2, #4]
    2e92:	430b      	orrs	r3, r1
    2e94:	6053      	str	r3, [r2, #4]
    2e96:	bd10      	pop	{r4, pc}
    2e98:	00020080 	.word	0x00020080

00002e9c <GPIO_Init>:
    2e9c:	6803      	ldr	r3, [r0, #0]
    2e9e:	b537      	push	{r0, r1, r2, r4, r5, lr}
    2ea0:	0004      	movs	r4, r0
    2ea2:	2b02      	cmp	r3, #2
    2ea4:	d903      	bls.n	2eae <GPIO_Init+0x12>
    2ea6:	21fd      	movs	r1, #253	; 0xfd
    2ea8:	4816      	ldr	r0, [pc, #88]	; (2f04 <GPIO_Init+0x68>)
    2eaa:	f7fe faa1 	bl	13f0 <io_assert_failed>
    2eae:	2100      	movs	r1, #0
    2eb0:	4b15      	ldr	r3, [pc, #84]	; (2f08 <GPIO_Init+0x6c>)
    2eb2:	7d20      	ldrb	r0, [r4, #20]
    2eb4:	4798      	blx	r3
    2eb6:	6823      	ldr	r3, [r4, #0]
    2eb8:	4d14      	ldr	r5, [pc, #80]	; (2f0c <GPIO_Init+0x70>)
    2eba:	2100      	movs	r1, #0
    2ebc:	2b02      	cmp	r3, #2
    2ebe:	d10a      	bne.n	2ed6 <GPIO_Init+0x3a>
    2ec0:	6960      	ldr	r0, [r4, #20]
    2ec2:	4b13      	ldr	r3, [pc, #76]	; (2f10 <GPIO_Init+0x74>)
    2ec4:	4798      	blx	r3
    2ec6:	6923      	ldr	r3, [r4, #16]
    2ec8:	68a2      	ldr	r2, [r4, #8]
    2eca:	9300      	str	r3, [sp, #0]
    2ecc:	2101      	movs	r1, #1
    2ece:	68e3      	ldr	r3, [r4, #12]
    2ed0:	6960      	ldr	r0, [r4, #20]
    2ed2:	47a8      	blx	r5
    2ed4:	e014      	b.n	2f00 <GPIO_Init+0x64>
    2ed6:	9100      	str	r1, [sp, #0]
    2ed8:	000b      	movs	r3, r1
    2eda:	000a      	movs	r2, r1
    2edc:	6960      	ldr	r0, [r4, #20]
    2ede:	47a8      	blx	r5
    2ee0:	6821      	ldr	r1, [r4, #0]
    2ee2:	2901      	cmp	r1, #1
    2ee4:	d103      	bne.n	2eee <GPIO_Init+0x52>
    2ee6:	6960      	ldr	r0, [r4, #20]
    2ee8:	4b09      	ldr	r3, [pc, #36]	; (2f10 <GPIO_Init+0x74>)
    2eea:	4798      	blx	r3
    2eec:	e008      	b.n	2f00 <GPIO_Init+0x64>
    2eee:	b939      	cbnz	r1, 2f00 <GPIO_Init+0x64>
    2ef0:	6960      	ldr	r0, [r4, #20]
    2ef2:	4b07      	ldr	r3, [pc, #28]	; (2f10 <GPIO_Init+0x74>)
    2ef4:	4798      	blx	r3
    2ef6:	6960      	ldr	r0, [r4, #20]
    2ef8:	7921      	ldrb	r1, [r4, #4]
    2efa:	b2c0      	uxtb	r0, r0
    2efc:	4b05      	ldr	r3, [pc, #20]	; (2f14 <GPIO_Init+0x78>)
    2efe:	4798      	blx	r3
    2f00:	bd37      	pop	{r0, r1, r2, r4, r5, pc}
    2f02:	bf00      	nop
    2f04:	000217e9 	.word	0x000217e9
    2f08:	000036dd 	.word	0x000036dd
    2f0c:	00002d15 	.word	0x00002d15
    2f10:	00002e71 	.word	0x00002e71
    2f14:	00003685 	.word	0x00003685

00002f18 <GPIO_DeInit>:
    2f18:	b5f7      	push	{r0, r1, r2, r4, r5, r6, r7, lr}
    2f1a:	0644      	lsls	r4, r0, #25
    2f1c:	4b11      	ldr	r3, [pc, #68]	; (2f64 <GPIO_DeInit+0x4c>)
    2f1e:	0fa4      	lsrs	r4, r4, #30
    2f20:	00a2      	lsls	r2, r4, #2
    2f22:	58d5      	ldr	r5, [r2, r3]
    2f24:	221f      	movs	r2, #31
    2f26:	2601      	movs	r6, #1
    2f28:	b2c0      	uxtb	r0, r0
    2f2a:	4002      	ands	r2, r0
    2f2c:	4096      	lsls	r6, r2
    2f2e:	43f7      	mvns	r7, r6
    2f30:	686b      	ldr	r3, [r5, #4]
    2f32:	403b      	ands	r3, r7
    2f34:	606b      	str	r3, [r5, #4]
    2f36:	2100      	movs	r1, #0
    2f38:	4b0b      	ldr	r3, [pc, #44]	; (2f68 <GPIO_DeInit+0x50>)
    2f3a:	9201      	str	r2, [sp, #4]
    2f3c:	4798      	blx	r3
    2f3e:	6b2b      	ldr	r3, [r5, #48]	; 0x30
    2f40:	401f      	ands	r7, r3
    2f42:	9b01      	ldr	r3, [sp, #4]
    2f44:	632f      	str	r7, [r5, #48]	; 0x30
    2f46:	009b      	lsls	r3, r3, #2
    2f48:	64ee      	str	r6, [r5, #76]	; 0x4c
    2f4a:	b924      	cbnz	r4, 2f56 <GPIO_DeInit+0x3e>
    2f4c:	4a07      	ldr	r2, [pc, #28]	; (2f6c <GPIO_DeInit+0x54>)
    2f4e:	50d4      	str	r4, [r2, r3]
    2f50:	4a07      	ldr	r2, [pc, #28]	; (2f70 <GPIO_DeInit+0x58>)
    2f52:	50d4      	str	r4, [r2, r3]
    2f54:	e004      	b.n	2f60 <GPIO_DeInit+0x48>
    2f56:	2200      	movs	r2, #0
    2f58:	4906      	ldr	r1, [pc, #24]	; (2f74 <GPIO_DeInit+0x5c>)
    2f5a:	50ca      	str	r2, [r1, r3]
    2f5c:	4906      	ldr	r1, [pc, #24]	; (2f78 <GPIO_DeInit+0x60>)
    2f5e:	50ca      	str	r2, [r1, r3]
    2f60:	bdf7      	pop	{r0, r1, r2, r4, r5, r6, r7, pc}
    2f62:	bf00      	nop
    2f64:	00020080 	.word	0x00020080
    2f68:	00003685 	.word	0x00003685
    2f6c:	0008025c 	.word	0x0008025c
    2f70:	000802dc 	.word	0x000802dc
    2f74:	0008035c 	.word	0x0008035c
    2f78:	000803dc 	.word	0x000803dc

00002f7c <GPIO_ReadDataBit>:
    2f7c:	0643      	lsls	r3, r0, #25
    2f7e:	4a06      	ldr	r2, [pc, #24]	; (2f98 <GPIO_ReadDataBit+0x1c>)
    2f80:	0f9b      	lsrs	r3, r3, #30
    2f82:	009b      	lsls	r3, r3, #2
    2f84:	589b      	ldr	r3, [r3, r2]
    2f86:	6d1a      	ldr	r2, [r3, #80]	; 0x50
    2f88:	231f      	movs	r3, #31
    2f8a:	4003      	ands	r3, r0
    2f8c:	2001      	movs	r0, #1
    2f8e:	4098      	lsls	r0, r3
    2f90:	4010      	ands	r0, r2
    2f92:	1e43      	subs	r3, r0, #1
    2f94:	4198      	sbcs	r0, r3
    2f96:	4770      	bx	lr
    2f98:	00020080 	.word	0x00020080

00002f9c <GPIO_WriteBit>:
    2f9c:	221f      	movs	r2, #31
    2f9e:	4002      	ands	r2, r0
    2fa0:	0640      	lsls	r0, r0, #25
    2fa2:	4b08      	ldr	r3, [pc, #32]	; (2fc4 <GPIO_WriteBit+0x28>)
    2fa4:	0f80      	lsrs	r0, r0, #30
    2fa6:	0080      	lsls	r0, r0, #2
    2fa8:	b510      	push	{r4, lr}
    2faa:	58c4      	ldr	r4, [r0, r3]
    2fac:	2301      	movs	r3, #1
    2fae:	6820      	ldr	r0, [r4, #0]
    2fb0:	4093      	lsls	r3, r2
    2fb2:	b919      	cbnz	r1, 2fbc <GPIO_WriteBit+0x20>
    2fb4:	001a      	movs	r2, r3
    2fb6:	0003      	movs	r3, r0
    2fb8:	4393      	bics	r3, r2
    2fba:	e000      	b.n	2fbe <GPIO_WriteBit+0x22>
    2fbc:	4303      	orrs	r3, r0
    2fbe:	6023      	str	r3, [r4, #0]
    2fc0:	bd10      	pop	{r4, pc}
    2fc2:	bf00      	nop
    2fc4:	00020080 	.word	0x00020080

00002fc8 <GPIO_PortDirection>:
    2fc8:	4b07      	ldr	r3, [pc, #28]	; (2fe8 <GPIO_PortDirection+0x20>)
    2fca:	b510      	push	{r4, lr}
    2fcc:	0084      	lsls	r4, r0, #2
    2fce:	58e4      	ldr	r4, [r4, r3]
    2fd0:	230c      	movs	r3, #12
    2fd2:	4358      	muls	r0, r3
    2fd4:	1820      	adds	r0, r4, r0
    2fd6:	6840      	ldr	r0, [r0, #4]
    2fd8:	0003      	movs	r3, r0
    2fda:	430b      	orrs	r3, r1
    2fdc:	b90a      	cbnz	r2, 2fe2 <GPIO_PortDirection+0x1a>
    2fde:	0003      	movs	r3, r0
    2fe0:	438b      	bics	r3, r1
    2fe2:	6063      	str	r3, [r4, #4]
    2fe4:	bd10      	pop	{r4, pc}
    2fe6:	bf00      	nop
    2fe8:	00020080 	.word	0x00020080

00002fec <GPIO_PortRead>:
    2fec:	4b02      	ldr	r3, [pc, #8]	; (2ff8 <GPIO_PortRead+0xc>)
    2fee:	0080      	lsls	r0, r0, #2
    2ff0:	58c3      	ldr	r3, [r0, r3]
    2ff2:	6d18      	ldr	r0, [r3, #80]	; 0x50
    2ff4:	4770      	bx	lr
    2ff6:	bf00      	nop
    2ff8:	00020080 	.word	0x00020080

00002ffc <GPIO_PortWrite>:
    2ffc:	4b04      	ldr	r3, [pc, #16]	; (3010 <GPIO_PortWrite+0x14>)
    2ffe:	0080      	lsls	r0, r0, #2
    3000:	58c3      	ldr	r3, [r0, r3]
    3002:	6818      	ldr	r0, [r3, #0]
    3004:	4042      	eors	r2, r0
    3006:	4011      	ands	r1, r2
    3008:	4041      	eors	r1, r0
    300a:	6019      	str	r1, [r3, #0]
    300c:	4770      	bx	lr
    300e:	bf00      	nop
    3010:	00020080 	.word	0x00020080

00003014 <GPIO_UserRegIrq>:
    3014:	231f      	movs	r3, #31
    3016:	4003      	ands	r3, r0
    3018:	0640      	lsls	r0, r0, #25
    301a:	0f80      	lsrs	r0, r0, #30
    301c:	009b      	lsls	r3, r3, #2
    301e:	b918      	cbnz	r0, 3028 <GPIO_UserRegIrq+0x14>
    3020:	4804      	ldr	r0, [pc, #16]	; (3034 <GPIO_UserRegIrq+0x20>)
    3022:	50c1      	str	r1, [r0, r3]
    3024:	4904      	ldr	r1, [pc, #16]	; (3038 <GPIO_UserRegIrq+0x24>)
    3026:	e002      	b.n	302e <GPIO_UserRegIrq+0x1a>
    3028:	4804      	ldr	r0, [pc, #16]	; (303c <GPIO_UserRegIrq+0x28>)
    302a:	50c1      	str	r1, [r0, r3]
    302c:	4904      	ldr	r1, [pc, #16]	; (3040 <GPIO_UserRegIrq+0x2c>)
    302e:	50ca      	str	r2, [r1, r3]
    3030:	4770      	bx	lr
    3032:	bf00      	nop
    3034:	0008025c 	.word	0x0008025c
    3038:	000802dc 	.word	0x000802dc
    303c:	0008035c 	.word	0x0008035c
    3040:	000803dc 	.word	0x000803dc

00003044 <IPC_INTConfig>:
    3044:	2a01      	cmp	r2, #1
    3046:	d102      	bne.n	304e <IPC_INTConfig+0xa>
    3048:	408a      	lsls	r2, r1
    304a:	6002      	str	r2, [r0, #0]
    304c:	e002      	b.n	3054 <IPC_INTConfig+0x10>
    304e:	2301      	movs	r3, #1
    3050:	408b      	lsls	r3, r1
    3052:	6043      	str	r3, [r0, #4]
    3054:	4770      	bx	lr

00003056 <IPC_IERSet>:
    3056:	6001      	str	r1, [r0, #0]
    3058:	4770      	bx	lr

0000305a <IPC_IERGet>:
    305a:	69c0      	ldr	r0, [r0, #28]
    305c:	4770      	bx	lr

0000305e <IPC_INTRequest>:
    305e:	2301      	movs	r3, #1
    3060:	408b      	lsls	r3, r1
    3062:	6083      	str	r3, [r0, #8]
    3064:	4770      	bx	lr

00003066 <IPC_INTClear>:
    3066:	2301      	movs	r3, #1
    3068:	408b      	lsls	r3, r1
    306a:	60c3      	str	r3, [r0, #12]
    306c:	4770      	bx	lr

0000306e <IPC_INTGet>:
    306e:	6940      	ldr	r0, [r0, #20]
    3070:	4770      	bx	lr

00003072 <IPC_CPUID>:
    3072:	4b01      	ldr	r3, [pc, #4]	; (3078 <IPC_CPUID+0x6>)
    3074:	6918      	ldr	r0, [r3, #16]
    3076:	4770      	bx	lr
    3078:	48006000 	.word	0x48006000

0000307c <IPC_SEMGet>:
    307c:	b5f8      	push	{r3, r4, r5, r6, r7, lr}
    307e:	2701      	movs	r7, #1
    3080:	0046      	lsls	r6, r0, #1
    3082:	40b7      	lsls	r7, r6
    3084:	4c0c      	ldr	r4, [pc, #48]	; (30b8 <IPC_SEMGet+0x3c>)
    3086:	6925      	ldr	r5, [r4, #16]
    3088:	006d      	lsls	r5, r5, #1
    308a:	4a0c      	ldr	r2, [pc, #48]	; (30bc <IPC_SEMGet+0x40>)
    308c:	69a3      	ldr	r3, [r4, #24]
    308e:	421f      	tst	r7, r3
    3090:	d1fc      	bne.n	308c <IPC_SEMGet+0x10>
    3092:	61a7      	str	r7, [r4, #24]
    3094:	69a3      	ldr	r3, [r4, #24]
    3096:	2102      	movs	r1, #2
    3098:	40f3      	lsrs	r3, r6
    309a:	400b      	ands	r3, r1
    309c:	429d      	cmp	r5, r3
    309e:	d009      	beq.n	30b4 <IPC_SEMGet+0x38>
    30a0:	2180      	movs	r1, #128	; 0x80
    30a2:	6893      	ldr	r3, [r2, #8]
    30a4:	04c9      	lsls	r1, r1, #19
    30a6:	420b      	tst	r3, r1
    30a8:	d0f0      	beq.n	308c <IPC_SEMGet+0x10>
    30aa:	0029      	movs	r1, r5
    30ac:	4804      	ldr	r0, [pc, #16]	; (30c0 <IPC_SEMGet+0x44>)
    30ae:	f7fd f9e1 	bl	474 <DiagPrintf>
    30b2:	e7ea      	b.n	308a <IPC_SEMGet+0xe>
    30b4:	2001      	movs	r0, #1
    30b6:	bdf8      	pop	{r3, r4, r5, r6, r7, pc}
    30b8:	48006000 	.word	0x48006000
    30bc:	000801cc 	.word	0x000801cc
    30c0:	00020f0e 	.word	0x00020f0e

000030c4 <IPC_SEMFree>:
    30c4:	b570      	push	{r4, r5, r6, lr}
    30c6:	4d14      	ldr	r5, [pc, #80]	; (3118 <IPC_SEMFree+0x54>)
    30c8:	6929      	ldr	r1, [r5, #16]
    30ca:	69ab      	ldr	r3, [r5, #24]
    30cc:	0046      	lsls	r6, r0, #1
    30ce:	40f3      	lsrs	r3, r6
    30d0:	2401      	movs	r4, #1
    30d2:	0002      	movs	r2, r0
    30d4:	0049      	lsls	r1, r1, #1
    30d6:	4223      	tst	r3, r4
    30d8:	d108      	bne.n	30ec <IPC_SEMFree+0x28>
    30da:	4b10      	ldr	r3, [pc, #64]	; (311c <IPC_SEMFree+0x58>)
    30dc:	681b      	ldr	r3, [r3, #0]
    30de:	015b      	lsls	r3, r3, #5
    30e0:	d517      	bpl.n	3112 <IPC_SEMFree+0x4e>
    30e2:	40e1      	lsrs	r1, r4
    30e4:	480e      	ldr	r0, [pc, #56]	; (3120 <IPC_SEMFree+0x5c>)
    30e6:	f7fd f9c5 	bl	474 <DiagPrintf>
    30ea:	e012      	b.n	3112 <IPC_SEMFree+0x4e>
    30ec:	2002      	movs	r0, #2
    30ee:	4018      	ands	r0, r3
    30f0:	4281      	cmp	r1, r0
    30f2:	d00b      	beq.n	310c <IPC_SEMFree+0x48>
    30f4:	2480      	movs	r4, #128	; 0x80
    30f6:	4809      	ldr	r0, [pc, #36]	; (311c <IPC_SEMFree+0x58>)
    30f8:	6800      	ldr	r0, [r0, #0]
    30fa:	04e4      	lsls	r4, r4, #19
    30fc:	4004      	ands	r4, r0
    30fe:	b144      	cbz	r4, 3112 <IPC_SEMFree+0x4e>
    3100:	0849      	lsrs	r1, r1, #1
    3102:	4808      	ldr	r0, [pc, #32]	; (3124 <IPC_SEMFree+0x60>)
    3104:	f7fd f9b6 	bl	474 <DiagPrintf>
    3108:	2400      	movs	r4, #0
    310a:	e002      	b.n	3112 <IPC_SEMFree+0x4e>
    310c:	0023      	movs	r3, r4
    310e:	40b3      	lsls	r3, r6
    3110:	61ab      	str	r3, [r5, #24]
    3112:	0020      	movs	r0, r4
    3114:	bd70      	pop	{r4, r5, r6, pc}
    3116:	bf00      	nop
    3118:	48006000 	.word	0x48006000
    311c:	000801cc 	.word	0x000801cc
    3120:	00020f3f 	.word	0x00020f3f
    3124:	00020f80 	.word	0x00020f80

00003128 <IPC_INTHandler>:
    3128:	b5f8      	push	{r3, r4, r5, r6, r7, lr}
    312a:	0006      	movs	r6, r0
    312c:	2400      	movs	r4, #0
    312e:	6945      	ldr	r5, [r0, #20]
    3130:	2201      	movs	r2, #1
    3132:	40a2      	lsls	r2, r4
    3134:	422a      	tst	r2, r5
    3136:	d009      	beq.n	314c <IPC_INTHandler+0x24>
    3138:	4b07      	ldr	r3, [pc, #28]	; (3158 <IPC_INTHandler+0x30>)
    313a:	00a0      	lsls	r0, r4, #2
    313c:	58c3      	ldr	r3, [r0, r3]
    313e:	b12b      	cbz	r3, 314c <IPC_INTHandler+0x24>
    3140:	4f06      	ldr	r7, [pc, #24]	; (315c <IPC_INTHandler+0x34>)
    3142:	60f2      	str	r2, [r6, #12]
    3144:	0029      	movs	r1, r5
    3146:	0022      	movs	r2, r4
    3148:	59c0      	ldr	r0, [r0, r7]
    314a:	4798      	blx	r3
    314c:	3401      	adds	r4, #1
    314e:	2c20      	cmp	r4, #32
    3150:	d1ee      	bne.n	3130 <IPC_INTHandler+0x8>
    3152:	2000      	movs	r0, #0
    3154:	bdf8      	pop	{r3, r4, r5, r6, r7, pc}
    3156:	bf00      	nop
    3158:	0008045c 	.word	0x0008045c
    315c:	000804dc 	.word	0x000804dc

00003160 <IPC_INTUserHandler>:
    3160:	b570      	push	{r4, r5, r6, lr}
    3162:	4e09      	ldr	r6, [pc, #36]	; (3188 <IPC_INTUserHandler+0x28>)
    3164:	4c09      	ldr	r4, [pc, #36]	; (318c <IPC_INTUserHandler+0x2c>)
    3166:	0085      	lsls	r5, r0, #2
    3168:	6923      	ldr	r3, [r4, #16]
    316a:	51a9      	str	r1, [r5, r6]
    316c:	4e08      	ldr	r6, [pc, #32]	; (3190 <IPC_INTUserHandler+0x30>)
    316e:	b2db      	uxtb	r3, r3
    3170:	51aa      	str	r2, [r5, r6]
    3172:	b141      	cbz	r1, 3186 <IPC_INTUserHandler+0x26>
    3174:	2b01      	cmp	r3, #1
    3176:	d102      	bne.n	317e <IPC_INTUserHandler+0x1e>
    3178:	4083      	lsls	r3, r0
    317a:	6023      	str	r3, [r4, #0]
    317c:	e003      	b.n	3186 <IPC_INTUserHandler+0x26>
    317e:	2301      	movs	r3, #1
    3180:	4083      	lsls	r3, r0
    3182:	4a04      	ldr	r2, [pc, #16]	; (3194 <IPC_INTUserHandler+0x34>)
    3184:	6013      	str	r3, [r2, #0]
    3186:	bd70      	pop	{r4, r5, r6, pc}
    3188:	0008045c 	.word	0x0008045c
    318c:	48006000 	.word	0x48006000
    3190:	000804dc 	.word	0x000804dc
    3194:	40006000 	.word	0x40006000

00003198 <LOGUART_StructInit>:
    3198:	2300      	movs	r3, #0
    319a:	2201      	movs	r2, #1
    319c:	6003      	str	r3, [r0, #0]
    319e:	6042      	str	r2, [r0, #4]
    31a0:	6083      	str	r3, [r0, #8]
    31a2:	60c3      	str	r3, [r0, #12]
    31a4:	6103      	str	r3, [r0, #16]
    31a6:	6143      	str	r3, [r0, #20]
    31a8:	6183      	str	r3, [r0, #24]
    31aa:	61c3      	str	r3, [r0, #28]
    31ac:	6202      	str	r2, [r0, #32]
    31ae:	4770      	bx	lr

000031b0 <LOGUART_Init>:
    31b0:	b510      	push	{r4, lr}
    31b2:	4c0a      	ldr	r4, [pc, #40]	; (31dc <LOGUART_Init+0x2c>)
    31b4:	0001      	movs	r1, r0
    31b6:	4b0a      	ldr	r3, [pc, #40]	; (31e0 <LOGUART_Init+0x30>)
    31b8:	0020      	movs	r0, r4
    31ba:	4798      	blx	r3
    31bc:	21e1      	movs	r1, #225	; 0xe1
    31be:	0020      	movs	r0, r4
    31c0:	0249      	lsls	r1, r1, #9
    31c2:	4b08      	ldr	r3, [pc, #32]	; (31e4 <LOGUART_Init+0x34>)
    31c4:	4798      	blx	r3
    31c6:	2201      	movs	r2, #1
    31c8:	0020      	movs	r0, r4
    31ca:	0011      	movs	r1, r2
    31cc:	4b06      	ldr	r3, [pc, #24]	; (31e8 <LOGUART_Init+0x38>)
    31ce:	4798      	blx	r3
    31d0:	2101      	movs	r1, #1
    31d2:	0020      	movs	r0, r4
    31d4:	4b05      	ldr	r3, [pc, #20]	; (31ec <LOGUART_Init+0x3c>)
    31d6:	4798      	blx	r3
    31d8:	bd10      	pop	{r4, pc}
    31da:	bf00      	nop
    31dc:	48012000 	.word	0x48012000
    31e0:	00004307 	.word	0x00004307
    31e4:	000040b1 	.word	0x000040b1
    31e8:	000043b7 	.word	0x000043b7
    31ec:	000041dd 	.word	0x000041dd

000031f0 <LOGUART_PutChar>:
    31f0:	4b09      	ldr	r3, [pc, #36]	; (3218 <LOGUART_PutChar+0x28>)
    31f2:	681b      	ldr	r3, [r3, #0]
    31f4:	b510      	push	{r4, lr}
    31f6:	2b01      	cmp	r3, #1
    31f8:	d00d      	beq.n	3216 <LOGUART_PutChar+0x26>
    31fa:	f641 128c 	movw	r2, #6540	; 0x198c
    31fe:	2120      	movs	r1, #32
    3200:	4b06      	ldr	r3, [pc, #24]	; (321c <LOGUART_PutChar+0x2c>)
    3202:	3a01      	subs	r2, #1
    3204:	b112      	cbz	r2, 320c <LOGUART_PutChar+0x1c>
    3206:	695c      	ldr	r4, [r3, #20]
    3208:	420c      	tst	r4, r1
    320a:	d0fa      	beq.n	3202 <LOGUART_PutChar+0x12>
    320c:	6258      	str	r0, [r3, #36]	; 0x24
    320e:	280a      	cmp	r0, #10
    3210:	d101      	bne.n	3216 <LOGUART_PutChar+0x26>
    3212:	220d      	movs	r2, #13
    3214:	625a      	str	r2, [r3, #36]	; 0x24
    3216:	bd10      	pop	{r4, pc}
    3218:	000801c0 	.word	0x000801c0
    321c:	48012000 	.word	0x48012000

00003220 <LOGUART_GetChar>:
    3220:	4b04      	ldr	r3, [pc, #16]	; (3234 <LOGUART_GetChar+0x14>)
    3222:	b118      	cbz	r0, 322c <LOGUART_GetChar+0xc>
    3224:	2201      	movs	r2, #1
    3226:	6959      	ldr	r1, [r3, #20]
    3228:	4211      	tst	r1, r2
    322a:	d0fc      	beq.n	3226 <LOGUART_GetChar+0x6>
    322c:	6a58      	ldr	r0, [r3, #36]	; 0x24
    322e:	b2c0      	uxtb	r0, r0
    3230:	4770      	bx	lr
    3232:	bf00      	nop
    3234:	48012000 	.word	0x48012000

00003238 <LOGUART_Readable>:
    3238:	b510      	push	{r4, lr}
    323a:	4802      	ldr	r0, [pc, #8]	; (3244 <LOGUART_Readable+0xc>)
    323c:	4b02      	ldr	r3, [pc, #8]	; (3248 <LOGUART_Readable+0x10>)
    323e:	4798      	blx	r3
    3240:	b2c0      	uxtb	r0, r0
    3242:	bd10      	pop	{r4, pc}
    3244:	48012000 	.word	0x48012000
    3248:	000041f5 	.word	0x000041f5

0000324c <LOGUART_GetIMR>:
    324c:	4b01      	ldr	r3, [pc, #4]	; (3254 <LOGUART_GetIMR+0x8>)
    324e:	6858      	ldr	r0, [r3, #4]
    3250:	4770      	bx	lr
    3252:	bf00      	nop
    3254:	48012000 	.word	0x48012000

00003258 <LOGUART_SetIMR>:
    3258:	4b01      	ldr	r3, [pc, #4]	; (3260 <LOGUART_SetIMR+0x8>)
    325a:	6058      	str	r0, [r3, #4]
    325c:	4770      	bx	lr
    325e:	bf00      	nop
    3260:	48012000 	.word	0x48012000

00003264 <LOGUART_WaitBusy>:
    3264:	b510      	push	{r4, lr}
    3266:	2440      	movs	r4, #64	; 0x40
    3268:	4b04      	ldr	r3, [pc, #16]	; (327c <LOGUART_WaitBusy+0x18>)
    326a:	695b      	ldr	r3, [r3, #20]
    326c:	4223      	tst	r3, r4
    326e:	d103      	bne.n	3278 <LOGUART_WaitBusy+0x14>
    3270:	2064      	movs	r0, #100	; 0x64
    3272:	4b03      	ldr	r3, [pc, #12]	; (3280 <LOGUART_WaitBusy+0x1c>)
    3274:	4798      	blx	r3
    3276:	e7f7      	b.n	3268 <LOGUART_WaitBusy+0x4>
    3278:	bd10      	pop	{r4, pc}
    327a:	bf00      	nop
    327c:	48012000 	.word	0x48012000
    3280:	000014c3 	.word	0x000014c3

00003284 <LOGUART_SetBaud>:
    3284:	b5f8      	push	{r3, r4, r5, r6, r7, lr}
    3286:	0007      	movs	r7, r0
    3288:	4c0b      	ldr	r4, [pc, #44]	; (32b8 <LOGUART_SetBaud+0x34>)
    328a:	2200      	movs	r2, #0
    328c:	4e0b      	ldr	r6, [pc, #44]	; (32bc <LOGUART_SetBaud+0x38>)
    328e:	0020      	movs	r0, r4
    3290:	2105      	movs	r1, #5
    3292:	47b0      	blx	r6
    3294:	4d0a      	ldr	r5, [pc, #40]	; (32c0 <LOGUART_SetBaud+0x3c>)
    3296:	0020      	movs	r0, r4
    3298:	2100      	movs	r1, #0
    329a:	47a8      	blx	r5
    329c:	0039      	movs	r1, r7
    329e:	4b09      	ldr	r3, [pc, #36]	; (32c4 <LOGUART_SetBaud+0x40>)
    32a0:	0020      	movs	r0, r4
    32a2:	4798      	blx	r3
    32a4:	2201      	movs	r2, #1
    32a6:	0020      	movs	r0, r4
    32a8:	2105      	movs	r1, #5
    32aa:	47b0      	blx	r6
    32ac:	0020      	movs	r0, r4
    32ae:	2101      	movs	r1, #1
    32b0:	47a8      	blx	r5
    32b2:	2001      	movs	r0, #1
    32b4:	bdf8      	pop	{r3, r4, r5, r6, r7, pc}
    32b6:	bf00      	nop
    32b8:	48012000 	.word	0x48012000
    32bc:	000043b7 	.word	0x000043b7
    32c0:	000041dd 	.word	0x000041dd
    32c4:	000040b1 	.word	0x000040b1

000032c8 <LOGUART_SetBaud_FromFlash>:
    32c8:	b510      	push	{r4, lr}
    32ca:	4c05      	ldr	r4, [pc, #20]	; (32e0 <LOGUART_SetBaud_FromFlash+0x18>)
    32cc:	6b21      	ldr	r1, [r4, #48]	; 0x30
    32ce:	1c4b      	adds	r3, r1, #1
    32d0:	d005      	beq.n	32de <LOGUART_SetBaud_FromFlash+0x16>
    32d2:	4804      	ldr	r0, [pc, #16]	; (32e4 <LOGUART_SetBaud_FromFlash+0x1c>)
    32d4:	f7fd f8ce 	bl	474 <DiagPrintf>
    32d8:	6b20      	ldr	r0, [r4, #48]	; 0x30
    32da:	f7ff ffd3 	bl	3284 <LOGUART_SetBaud>
    32de:	bd10      	pop	{r4, pc}
    32e0:	08009000 	.word	0x08009000
    32e4:	00020fd2 	.word	0x00020fd2

000032e8 <LOGUART_DiagInit>:
    32e8:	b510      	push	{r4, lr}
    32ea:	2201      	movs	r2, #1
    32ec:	b08c      	sub	sp, #48	; 0x30
    32ee:	0004      	movs	r4, r0
    32f0:	4910      	ldr	r1, [pc, #64]	; (3334 <LOGUART_DiagInit+0x4c>)
    32f2:	4811      	ldr	r0, [pc, #68]	; (3338 <LOGUART_DiagInit+0x50>)
    32f4:	4b11      	ldr	r3, [pc, #68]	; (333c <LOGUART_DiagInit+0x54>)
    32f6:	4798      	blx	r3
    32f8:	2101      	movs	r1, #1
    32fa:	2000      	movs	r0, #0
    32fc:	4b10      	ldr	r3, [pc, #64]	; (3340 <LOGUART_DiagInit+0x58>)
    32fe:	4798      	blx	r3
    3300:	a802      	add	r0, sp, #8
    3302:	f7ff ff49 	bl	3198 <LOGUART_StructInit>
    3306:	a802      	add	r0, sp, #8
    3308:	f7ff ff52 	bl	31b0 <LOGUART_Init>
    330c:	2c01      	cmp	r4, #1
    330e:	d10f      	bne.n	3330 <LOGUART_DiagInit+0x48>
    3310:	2200      	movs	r2, #0
    3312:	2103      	movs	r1, #3
    3314:	230a      	movs	r3, #10
    3316:	480b      	ldr	r0, [pc, #44]	; (3344 <LOGUART_DiagInit+0x5c>)
    3318:	4c0b      	ldr	r4, [pc, #44]	; (3348 <LOGUART_DiagInit+0x60>)
    331a:	9201      	str	r2, [sp, #4]
    331c:	47a0      	blx	r4
    331e:	2003      	movs	r0, #3
    3320:	4b0a      	ldr	r3, [pc, #40]	; (334c <LOGUART_DiagInit+0x64>)
    3322:	4798      	blx	r3
    3324:	4b0a      	ldr	r3, [pc, #40]	; (3350 <LOGUART_DiagInit+0x68>)
    3326:	a801      	add	r0, sp, #4
    3328:	4798      	blx	r3
    332a:	9901      	ldr	r1, [sp, #4]
    332c:	4b09      	ldr	r3, [pc, #36]	; (3354 <LOGUART_DiagInit+0x6c>)
    332e:	4798      	blx	r3
    3330:	b00c      	add	sp, #48	; 0x30
    3332:	bd10      	pop	{r4, pc}
    3334:	40000010 	.word	0x40000010
    3338:	80000030 	.word	0x80000030
    333c:	00004f09 	.word	0x00004f09
    3340:	0000370d 	.word	0x0000370d
    3344:	000058f5 	.word	0x000058f5
    3348:	00005699 	.word	0x00005699
    334c:	00005559 	.word	0x00005559
    3350:	000012e9 	.word	0x000012e9
    3354:	000059ad 	.word	0x000059ad

00003358 <mpu_enable>:
    3358:	2101      	movs	r1, #1
    335a:	4a04      	ldr	r2, [pc, #16]	; (336c <mpu_enable+0x14>)
    335c:	6853      	ldr	r3, [r2, #4]
    335e:	430b      	orrs	r3, r1
    3360:	6053      	str	r3, [r2, #4]
    3362:	f3bf 8f4f 	dsb	sy
    3366:	f3bf 8f6f 	isb	sy
    336a:	4770      	bx	lr
    336c:	e000ed90 	.word	0xe000ed90

00003370 <mpu_disable>:
    3370:	f3bf 8f5f 	dmb	sy
    3374:	2101      	movs	r1, #1
    3376:	4a02      	ldr	r2, [pc, #8]	; (3380 <mpu_disable+0x10>)
    3378:	6853      	ldr	r3, [r2, #4]
    337a:	438b      	bics	r3, r1
    337c:	6053      	str	r3, [r2, #4]
    337e:	4770      	bx	lr
    3380:	e000ed90 	.word	0xe000ed90

00003384 <mpu_init>:
    3384:	b510      	push	{r4, lr}
    3386:	f7ff fff3 	bl	3370 <mpu_disable>
    338a:	2200      	movs	r2, #0
    338c:	4b05      	ldr	r3, [pc, #20]	; (33a4 <mpu_init+0x20>)
    338e:	4906      	ldr	r1, [pc, #24]	; (33a8 <mpu_init+0x24>)
    3390:	605a      	str	r2, [r3, #4]
    3392:	6319      	str	r1, [r3, #48]	; 0x30
    3394:	2104      	movs	r1, #4
    3396:	635a      	str	r2, [r3, #52]	; 0x34
    3398:	685a      	ldr	r2, [r3, #4]
    339a:	430a      	orrs	r2, r1
    339c:	605a      	str	r2, [r3, #4]
    339e:	f7ff ffdb 	bl	3358 <mpu_enable>
    33a2:	bd10      	pop	{r4, pc}
    33a4:	e000ed90 	.word	0xe000ed90
    33a8:	00772244 	.word	0x00772244

000033ac <mpu_set_mem_attr>:
    33ac:	b570      	push	{r4, r5, r6, lr}
    33ae:	0005      	movs	r5, r0
    33b0:	000c      	movs	r4, r1
    33b2:	2807      	cmp	r0, #7
    33b4:	d903      	bls.n	33be <mpu_set_mem_attr+0x12>
    33b6:	2160      	movs	r1, #96	; 0x60
    33b8:	480f      	ldr	r0, [pc, #60]	; (33f8 <mpu_set_mem_attr+0x4c>)
    33ba:	f7fe f819 	bl	13f0 <io_assert_failed>
    33be:	f7ff ffd7 	bl	3370 <mpu_disable>
    33c2:	2103      	movs	r1, #3
    33c4:	23ff      	movs	r3, #255	; 0xff
    33c6:	4029      	ands	r1, r5
    33c8:	00c9      	lsls	r1, r1, #3
    33ca:	408b      	lsls	r3, r1
    33cc:	4a0b      	ldr	r2, [pc, #44]	; (33fc <mpu_set_mem_attr+0x50>)
    33ce:	43db      	mvns	r3, r3
    33d0:	408c      	lsls	r4, r1
    33d2:	2d03      	cmp	r5, #3
    33d4:	d806      	bhi.n	33e4 <mpu_set_mem_attr+0x38>
    33d6:	6b11      	ldr	r1, [r2, #48]	; 0x30
    33d8:	400b      	ands	r3, r1
    33da:	6313      	str	r3, [r2, #48]	; 0x30
    33dc:	6b13      	ldr	r3, [r2, #48]	; 0x30
    33de:	431c      	orrs	r4, r3
    33e0:	6314      	str	r4, [r2, #48]	; 0x30
    33e2:	e005      	b.n	33f0 <mpu_set_mem_attr+0x44>
    33e4:	6b51      	ldr	r1, [r2, #52]	; 0x34
    33e6:	400b      	ands	r3, r1
    33e8:	6353      	str	r3, [r2, #52]	; 0x34
    33ea:	6b53      	ldr	r3, [r2, #52]	; 0x34
    33ec:	431c      	orrs	r4, r3
    33ee:	6354      	str	r4, [r2, #52]	; 0x34
    33f0:	f7ff ffb2 	bl	3358 <mpu_enable>
    33f4:	bd70      	pop	{r4, r5, r6, pc}
    33f6:	bf00      	nop
    33f8:	000217f3 	.word	0x000217f3
    33fc:	e000ed90 	.word	0xe000ed90

00003400 <mpu_region_cfg>:
    3400:	b5f0      	push	{r4, r5, r6, r7, lr}
    3402:	0007      	movs	r7, r0
    3404:	b085      	sub	sp, #20
    3406:	000d      	movs	r5, r1
    3408:	2803      	cmp	r0, #3
    340a:	d903      	bls.n	3414 <mpu_region_cfg+0x14>
    340c:	217f      	movs	r1, #127	; 0x7f
    340e:	482f      	ldr	r0, [pc, #188]	; (34cc <mpu_region_cfg+0xcc>)
    3410:	f7fd ffee 	bl	13f0 <io_assert_failed>
    3414:	6829      	ldr	r1, [r5, #0]
    3416:	4e2e      	ldr	r6, [pc, #184]	; (34d0 <mpu_region_cfg+0xd0>)
    3418:	06cb      	lsls	r3, r1, #27
    341a:	d009      	beq.n	3430 <mpu_region_cfg+0x30>
    341c:	6833      	ldr	r3, [r6, #0]
    341e:	039b      	lsls	r3, r3, #14
    3420:	d502      	bpl.n	3428 <mpu_region_cfg+0x28>
    3422:	482c      	ldr	r0, [pc, #176]	; (34d4 <mpu_region_cfg+0xd4>)
    3424:	f7fd f826 	bl	474 <DiagPrintf>
    3428:	2184      	movs	r1, #132	; 0x84
    342a:	4828      	ldr	r0, [pc, #160]	; (34cc <mpu_region_cfg+0xcc>)
    342c:	f7fd ffe0 	bl	13f0 <io_assert_failed>
    3430:	6869      	ldr	r1, [r5, #4]
    3432:	06cb      	lsls	r3, r1, #27
    3434:	d009      	beq.n	344a <mpu_region_cfg+0x4a>
    3436:	6833      	ldr	r3, [r6, #0]
    3438:	039b      	lsls	r3, r3, #14
    343a:	d502      	bpl.n	3442 <mpu_region_cfg+0x42>
    343c:	4826      	ldr	r0, [pc, #152]	; (34d8 <mpu_region_cfg+0xd8>)
    343e:	f7fd f819 	bl	474 <DiagPrintf>
    3442:	2189      	movs	r1, #137	; 0x89
    3444:	4821      	ldr	r0, [pc, #132]	; (34cc <mpu_region_cfg+0xcc>)
    3446:	f7fd ffd3 	bl	13f0 <io_assert_failed>
    344a:	686a      	ldr	r2, [r5, #4]
    344c:	4694      	mov	ip, r2
    344e:	682b      	ldr	r3, [r5, #0]
    3450:	4463      	add	r3, ip
    3452:	9303      	str	r3, [sp, #12]
    3454:	f7ff ff8c 	bl	3370 <mpu_disable>
    3458:	211f      	movs	r1, #31
    345a:	4c20      	ldr	r4, [pc, #128]	; (34dc <mpu_region_cfg+0xdc>)
    345c:	60a7      	str	r7, [r4, #8]
    345e:	682b      	ldr	r3, [r5, #0]
    3460:	7aaa      	ldrb	r2, [r5, #10]
    3462:	438b      	bics	r3, r1
    3464:	431a      	orrs	r2, r3
    3466:	7a6b      	ldrb	r3, [r5, #9]
    3468:	431a      	orrs	r2, r3
    346a:	7a2b      	ldrb	r3, [r5, #8]
    346c:	4313      	orrs	r3, r2
    346e:	60e3      	str	r3, [r4, #12]
    3470:	230e      	movs	r3, #14
    3472:	2780      	movs	r7, #128	; 0x80
    3474:	7aea      	ldrb	r2, [r5, #11]
    3476:	0052      	lsls	r2, r2, #1
    3478:	401a      	ands	r2, r3
    347a:	9b03      	ldr	r3, [sp, #12]
    347c:	438b      	bics	r3, r1
    347e:	391e      	subs	r1, #30
    3480:	430b      	orrs	r3, r1
    3482:	4313      	orrs	r3, r2
    3484:	6123      	str	r3, [r4, #16]
    3486:	6863      	ldr	r3, [r4, #4]
    3488:	430b      	orrs	r3, r1
    348a:	6063      	str	r3, [r4, #4]
    348c:	f7ff ff64 	bl	3358 <mpu_enable>
    3490:	68b3      	ldr	r3, [r6, #8]
    3492:	02bf      	lsls	r7, r7, #10
    3494:	423b      	tst	r3, r7
    3496:	d003      	beq.n	34a0 <mpu_region_cfg+0xa0>
    3498:	7ae9      	ldrb	r1, [r5, #11]
    349a:	4811      	ldr	r0, [pc, #68]	; (34e0 <mpu_region_cfg+0xe0>)
    349c:	f7fc ffea 	bl	474 <DiagPrintf>
    34a0:	68b3      	ldr	r3, [r6, #8]
    34a2:	423b      	tst	r3, r7
    34a4:	d005      	beq.n	34b2 <mpu_region_cfg+0xb2>
    34a6:	68a1      	ldr	r1, [r4, #8]
    34a8:	480e      	ldr	r0, [pc, #56]	; (34e4 <mpu_region_cfg+0xe4>)
    34aa:	68e2      	ldr	r2, [r4, #12]
    34ac:	6923      	ldr	r3, [r4, #16]
    34ae:	f7fc ffe1 	bl	474 <DiagPrintf>
    34b2:	68b3      	ldr	r3, [r6, #8]
    34b4:	039b      	lsls	r3, r3, #14
    34b6:	d507      	bpl.n	34c8 <mpu_region_cfg+0xc8>
    34b8:	6b21      	ldr	r1, [r4, #48]	; 0x30
    34ba:	6b62      	ldr	r2, [r4, #52]	; 0x34
    34bc:	6863      	ldr	r3, [r4, #4]
    34be:	6820      	ldr	r0, [r4, #0]
    34c0:	9000      	str	r0, [sp, #0]
    34c2:	4809      	ldr	r0, [pc, #36]	; (34e8 <mpu_region_cfg+0xe8>)
    34c4:	f7fc ffd6 	bl	474 <DiagPrintf>
    34c8:	b005      	add	sp, #20
    34ca:	bdf0      	pop	{r4, r5, r6, r7, pc}
    34cc:	00021804 	.word	0x00021804
    34d0:	000801cc 	.word	0x000801cc
    34d4:	00020fe8 	.word	0x00020fe8
    34d8:	0002101b 	.word	0x0002101b
    34dc:	e000ed90 	.word	0xe000ed90
    34e0:	0002104e 	.word	0x0002104e
    34e4:	0002108e 	.word	0x0002108e
    34e8:	000210d0 	.word	0x000210d0

000034ec <mpu_entry_free>:
    34ec:	2200      	movs	r2, #0
    34ee:	4b01      	ldr	r3, [pc, #4]	; (34f4 <mpu_entry_free+0x8>)
    34f0:	541a      	strb	r2, [r3, r0]
    34f2:	4770      	bx	lr
    34f4:	00080664 	.word	0x00080664

000034f8 <mpu_entry_alloc>:
    34f8:	2000      	movs	r0, #0
    34fa:	4b04      	ldr	r3, [pc, #16]	; (350c <mpu_entry_alloc+0x14>)
    34fc:	5cc2      	ldrb	r2, [r0, r3]
    34fe:	b10a      	cbz	r2, 3504 <mpu_entry_alloc+0xc>
    3500:	3001      	adds	r0, #1
    3502:	e7fb      	b.n	34fc <mpu_entry_alloc+0x4>
    3504:	3201      	adds	r2, #1
    3506:	541a      	strb	r2, [r3, r0]
    3508:	b2c0      	uxtb	r0, r0
    350a:	4770      	bx	lr
    350c:	00080664 	.word	0x00080664

00003510 <RSIP_Cmd>:
    3510:	4a05      	ldr	r2, [pc, #20]	; (3528 <RSIP_Cmd+0x18>)
    3512:	6813      	ldr	r3, [r2, #0]
    3514:	2801      	cmp	r0, #1
    3516:	d103      	bne.n	3520 <RSIP_Cmd+0x10>
    3518:	f240 4100 	movw	r1, #1024	; 0x400
    351c:	430b      	orrs	r3, r1
    351e:	e001      	b.n	3524 <RSIP_Cmd+0x14>
    3520:	4902      	ldr	r1, [pc, #8]	; (352c <RSIP_Cmd+0x1c>)
    3522:	400b      	ands	r3, r1
    3524:	6013      	str	r3, [r2, #0]
    3526:	4770      	bx	lr
    3528:	48000204 	.word	0x48000204
    352c:	fffffbff 	.word	0xfffffbff

00003530 <RSIP_OTF_init>:
    3530:	7803      	ldrb	r3, [r0, #0]
    3532:	061a      	lsls	r2, r3, #24
    3534:	7843      	ldrb	r3, [r0, #1]
    3536:	041b      	lsls	r3, r3, #16
    3538:	4313      	orrs	r3, r2
    353a:	78c2      	ldrb	r2, [r0, #3]
    353c:	431a      	orrs	r2, r3
    353e:	7883      	ldrb	r3, [r0, #2]
    3540:	021b      	lsls	r3, r3, #8
    3542:	4313      	orrs	r3, r2
    3544:	4a11      	ldr	r2, [pc, #68]	; (358c <RSIP_OTF_init+0x5c>)
    3546:	60d3      	str	r3, [r2, #12]
    3548:	7903      	ldrb	r3, [r0, #4]
    354a:	0619      	lsls	r1, r3, #24
    354c:	7943      	ldrb	r3, [r0, #5]
    354e:	041b      	lsls	r3, r3, #16
    3550:	430b      	orrs	r3, r1
    3552:	79c1      	ldrb	r1, [r0, #7]
    3554:	4319      	orrs	r1, r3
    3556:	7983      	ldrb	r3, [r0, #6]
    3558:	021b      	lsls	r3, r3, #8
    355a:	430b      	orrs	r3, r1
    355c:	6093      	str	r3, [r2, #8]
    355e:	7a03      	ldrb	r3, [r0, #8]
    3560:	0619      	lsls	r1, r3, #24
    3562:	7a43      	ldrb	r3, [r0, #9]
    3564:	041b      	lsls	r3, r3, #16
    3566:	430b      	orrs	r3, r1
    3568:	7ac1      	ldrb	r1, [r0, #11]
    356a:	4319      	orrs	r1, r3
    356c:	7a83      	ldrb	r3, [r0, #10]
    356e:	021b      	lsls	r3, r3, #8
    3570:	430b      	orrs	r3, r1
    3572:	6053      	str	r3, [r2, #4]
    3574:	2300      	movs	r3, #0
    3576:	6153      	str	r3, [r2, #20]
    3578:	6113      	str	r3, [r2, #16]
    357a:	4a05      	ldr	r2, [pc, #20]	; (3590 <RSIP_OTF_init+0x60>)
    357c:	6153      	str	r3, [r2, #20]
    357e:	6113      	str	r3, [r2, #16]
    3580:	61d3      	str	r3, [r2, #28]
    3582:	6193      	str	r3, [r2, #24]
    3584:	6253      	str	r3, [r2, #36]	; 0x24
    3586:	6213      	str	r3, [r2, #32]
    3588:	4770      	bx	lr
    358a:	bf00      	nop
    358c:	48000600 	.word	0x48000600
    3590:	48000608 	.word	0x48000608

00003594 <RSIP_OTF_Cmd>:
    3594:	4b03      	ldr	r3, [pc, #12]	; (35a4 <RSIP_OTF_Cmd+0x10>)
    3596:	220d      	movs	r2, #13
    3598:	2801      	cmp	r0, #1
    359a:	d000      	beq.n	359e <RSIP_OTF_Cmd+0xa>
    359c:	2200      	movs	r2, #0
    359e:	601a      	str	r2, [r3, #0]
    35a0:	4770      	bx	lr
    35a2:	bf00      	nop
    35a4:	48000600 	.word	0x48000600

000035a8 <RSIP_OTF_Mask>:
    35a8:	b570      	push	{r4, r5, r6, lr}
    35aa:	000e      	movs	r6, r1
    35ac:	0015      	movs	r5, r2
    35ae:	00c4      	lsls	r4, r0, #3
    35b0:	b17b      	cbz	r3, 35d2 <RSIP_OTF_Mask+0x2a>
    35b2:	23ff      	movs	r3, #255	; 0xff
    35b4:	439a      	bics	r2, r3
    35b6:	b902      	cbnz	r2, 35ba <RSIP_OTF_Mask+0x12>
    35b8:	b91d      	cbnz	r5, 35c2 <RSIP_OTF_Mask+0x1a>
    35ba:	2162      	movs	r1, #98	; 0x62
    35bc:	4808      	ldr	r0, [pc, #32]	; (35e0 <RSIP_OTF_Mask+0x38>)
    35be:	f7fd ff17 	bl	13f0 <io_assert_failed>
    35c2:	4b08      	ldr	r3, [pc, #32]	; (35e4 <RSIP_OTF_Mask+0x3c>)
    35c4:	18e4      	adds	r4, r4, r3
    35c6:	2301      	movs	r3, #1
    35c8:	022a      	lsls	r2, r5, #8
    35ca:	431a      	orrs	r2, r3
    35cc:	6166      	str	r6, [r4, #20]
    35ce:	6122      	str	r2, [r4, #16]
    35d0:	e005      	b.n	35de <RSIP_OTF_Mask+0x36>
    35d2:	2201      	movs	r2, #1
    35d4:	4b03      	ldr	r3, [pc, #12]	; (35e4 <RSIP_OTF_Mask+0x3c>)
    35d6:	18e4      	adds	r4, r4, r3
    35d8:	6923      	ldr	r3, [r4, #16]
    35da:	4393      	bics	r3, r2
    35dc:	6123      	str	r3, [r4, #16]
    35de:	bd70      	pop	{r4, r5, r6, pc}
    35e0:	00021813 	.word	0x00021813
    35e4:	48000600 	.word	0x48000600

000035e8 <RSIP_KEY_Request>:
    35e8:	4b0c      	ldr	r3, [pc, #48]	; (361c <RSIP_KEY_Request+0x34>)
    35ea:	b570      	push	{r4, r5, r6, lr}
    35ec:	0006      	movs	r6, r0
    35ee:	2400      	movs	r4, #0
    35f0:	001d      	movs	r5, r3
    35f2:	681a      	ldr	r2, [r3, #0]
    35f4:	4302      	orrs	r2, r0
    35f6:	601a      	str	r2, [r3, #0]
    35f8:	682b      	ldr	r3, [r5, #0]
    35fa:	3401      	adds	r4, #1
    35fc:	4233      	tst	r3, r6
    35fe:	d005      	beq.n	360c <RSIP_KEY_Request+0x24>
    3600:	2cff      	cmp	r4, #255	; 0xff
    3602:	d008      	beq.n	3616 <RSIP_KEY_Request+0x2e>
    3604:	200a      	movs	r0, #10
    3606:	4b06      	ldr	r3, [pc, #24]	; (3620 <RSIP_KEY_Request+0x38>)
